Microchip Technology Inc, vv3_24 (A) X

Tool Name:
  c:\program files (x86)\microchip\mplab c30\bin\bin\..\bin/pic30-coff-ld.exe

Command:
  -p24FJ256GA106 \
  -oC:\Users\Larizgoitia\Documents\GitHub\evrythng-openpicus\Obj\a.cof \
  -LC:\Program Files (x86)\FlyPort IDE\Microchip\TCPIP Stack\BigInt_helper_coff.a \
  -LC:\Program Files (x86)\FlyPort IDE\Microchip\TCPIP Stack\BigInt_helper_elf.a \
  -LC:\Program Files (x86)\FlyPort IDE\c30\support\gld \
  -LC:\Program Files (x86)\FlyPort IDE\c30\lib \
  -LC:\Program Files (x86)\FlyPort IDE\c30\lib\pic24f \
  -Lc:/program files (x86)/microchip/mplab c30/bin/bin/.. \
  -Lc:/program files (x86)/microchip/mplab c30/bin/bin/../../lib \
  -Lc:/program files (x86)/microchip/mplab c30/bin/bin/../../support/generic/gld \
  -Lc:/program files (x86)/microchip/mplab c30/bin/bin/../../lib/PIC24F \
  -Lc:/program files (x86)/microchip/mplab c30/bin/bin/../../support/PIC24F/gld \
  -Lc:/program files (x86)/microchip/mplab c30/bin/bin/../../lib/PIC24H \
  -Lc:/program files (x86)/microchip/mplab c30/bin/bin/../../support/PIC24H/gld \
  -Lc:/program files (x86)/microchip/mplab c30/bin/bin/../../lib/dsPIC30F \
  -Lc:/program files (x86)/microchip/mplab c30/bin/bin/../../support/dsPIC30F/gld \
  -Lc:/program files (x86)/microchip/mplab c30/bin/bin/../../lib/dsPIC33F \
  -Lc:/program files (x86)/microchip/mplab c30/bin/bin/../../support/dsPIC33F/gld \
  Announce.o \
  ARCFOUR.o \
  ARP.o \
  ARPlib.o \
  BigInt.o \
  BigInt_helper.o \
  Delay.o \
  DHCP.o \
  DHCPs.o \
  DNS.o \
  DNSs.o \
  DynDNS.o \
  ENCX24J600.o \
  FTP.o \
  FTPlib.o \
  Hashes.o \
  heap_2.o \
  Helpers.o \
  HTTP2.o \
  HWInit.o \
  HWlib.o \
  ICMP.o \
  INTlib.o \
  IP.o \
  ISRs.o \
  list.o \
  Main.o \
  MPFS2.o \
  NBNS.o \
  NETlib.o \
  port.o \
  portasm_PIC24.o \
  queue.o \
  Random.o \
  Reboot.o \
  Regs.o \
  RSA.o \
  RTCClib.o \
  SMTP.o \
  SMTPlib.o \
  SNTP.o \
  SPIFlash.o \
  SSL.o \
  StackTsk.o \
  taskFlyport.o \
  tasks.o \
  TCP.o \
  TCPIP_Utils.o \
  TCPlib.o \
  Tick.o \
  UDP.o \
  UDPlib.o \
  WFConnectionAlgorithm.o \
  WFConnectionManager.o \
  WFConnectionProfile.o \
  WFDataTxRx.o \
  WFDebugStrings.o \
  WFDriverCom.o \
  WFDriverCom_24G.o \
  WFDriverRaw.o \
  WFDriverRaw_24G.o \
  WFEventHandler.o \
  WFInit.o \
  WFMac.o \
  WFMac_24G.o \
  WFMgmtMsg.o \
  WFMgmtMsg_24G.o \
  WFParamMsg.o \
  WFParamMsg_24G.o \
  WFPowerSave.o \
  WFScan.o \
  WFTxPower.o \
  WF_Config.o \
  WF_Eint.o \
  WF_Events.o \
  WF_Spi.o \
  WF_Utils.o \
  x_cJSON.o \
  x_evrythng.o \
  x_evrythng_utils.o \
  x_heap.o \
  x_HTTPlib.o \
  x_timestamp.o \
  ZeroconfHelper.o \
  ZeroconfLinkLocal.o \
  ZeroconfMulticastDNS.o \
  -Tp24FJ256GA106.gld.00 \
  --defsym=__MPLAB_BUILD=1 \
  -Map=Flyport.map \
  --report-mem \
  --library=pic30 \
  --library=c \
  --library=m \
  -start-group \
  --library=pic30-coff \
  --library=m-coff \
  --library=c-coff \
  -end-group \

Archive member included because of file (symbol)

c:/program files (x86)/microchip/mplab c30/bin/bin/../../lib\libpic30-coff.a(crt0_standard.o)
                              (_resetPRI)
c:/program files (x86)/microchip/mplab c30/bin/bin/../../lib\libpic30-coff.a(c30_uart.o)
                              HWInit.o (__C30_UART)
c:/program files (x86)/microchip/mplab c30/bin/bin/../../lib\libpic30-coff.a(flash_helper.o)
                              NETlib.o (_flash_helper1)
c:/program files (x86)/microchip/mplab c30/bin/bin/../../lib\libpic30-coff.a(data_init_standard.o)
                              c:/program files (x86)/microchip/mplab c30/bin/bin/../../lib\libpic30-coff.a(crt0_standard.o) (_data_init_standard)
c:/program files (x86)/microchip/mplab c30/bin/bin/../../lib\libc-coff.a(memset.o)
                              DHCP.o (memset)
c:/program files (x86)/microchip/mplab c30/bin/bin/../../lib\libc-coff.a(strtok.o)
                              FTPlib.o (strtok)
c:/program files (x86)/microchip/mplab c30/bin/bin/../../lib\libc-coff.a(strcpy.o)
                              FTPlib.o (strcpy)
c:/program files (x86)/microchip/mplab c30/bin/bin/../../lib\libc-coff.a(strlen.o)
                              FTPlib.o (strlen)
c:/program files (x86)/microchip/mplab c30/bin/bin/../../lib\libc-coff.a(strcat.o)
                              FTPlib.o (strcat)
c:/program files (x86)/microchip/mplab c30/bin/bin/../../lib\libc-coff.a(xstoul.o)
                              FTPlib.o (_Stoul)
c:/program files (x86)/microchip/mplab c30/bin/bin/../../lib\libc-coff.a(sprintf.io)
                              FTPlib.o (_isprintf)
c:/program files (x86)/microchip/mplab c30/bin/bin/../../lib\libc-coff.a(strcmp.o)
                              FTPlib.o (strcmp)
c:/program files (x86)/microchip/mplab c30/bin/bin/../../lib\libc-coff.a(rand.o)
                              Helpers.o (rand)
c:/program files (x86)/microchip/mplab c30/bin/bin/../../lib\libc-coff.a(srand.o)
                              Helpers.o (srand)
c:/program files (x86)/microchip/mplab c30/bin/bin/../../lib\libc-coff.a(memcpy.o)
                              queue.o (memcpy)
c:/program files (x86)/microchip/mplab c30/bin/bin/../../lib\libc-coff.a(strchr.o)
                              SMTP.o (strchr)
c:/program files (x86)/microchip/mplab c30/bin/bin/../../lib\libc-coff.a(strstr.o)
                              SMTP.o (strstr)
c:/program files (x86)/microchip/mplab c30/bin/bin/../../lib\libc-coff.a(memcmp.o)
                              SSL.o (memcmp)
c:/program files (x86)/microchip/mplab c30/bin/bin/../../lib\libc-coff.a(xstod.o)
                              taskFlyport.o (_Stof)
c:/program files (x86)/microchip/mplab c30/bin/bin/../../lib\libc-coff.a(strncpy.o)
                              tasks.o (strncpy)
c:/program files (x86)/microchip/mplab c30/bin/bin/../../lib\libc-coff.a(tolower.o)
                              x_cJSON.o (tolower)
c:/program files (x86)/microchip/mplab c30/bin/bin/../../lib\libc-coff.a(malloc.o)
                              x_cJSON.o (malloc)
c:/program files (x86)/microchip/mplab c30/bin/bin/../../lib\libc-coff.a(free.o)
                              x_cJSON.o (free)
c:/program files (x86)/microchip/mplab c30/bin/bin/../../lib\libc-coff.a(sprintf.o)
                              x_cJSON.o (sprintf)
c:/program files (x86)/microchip/mplab c30/bin/bin/../../lib\libc-coff.a(sscanf.io)
                              x_cJSON.o (_isscanf)
c:/program files (x86)/microchip/mplab c30/bin/bin/../../lib\libc-coff.a(strncmp.o)
                              x_cJSON.o (strncmp)
c:/program files (x86)/microchip/mplab c30/bin/bin/../../lib\libc-coff.a(localtim.o)
                              x_timestamp.o (localtime)
c:/program files (x86)/microchip/mplab c30/bin/bin/../../lib\libc-coff.a(asctime.o)
                              c:/program files (x86)/microchip/mplab c30/bin/bin/../../lib\libc-coff.a(localtim.o) (_Tls_setup__Times)
c:/program files (x86)/microchip/mplab c30/bin/bin/../../lib\libc-coff.a(mktime.o)
                              x_timestamp.o (mktime)
c:/program files (x86)/microchip/mplab c30/bin/bin/../../lib\libc-coff.a(strspn.o)
                              c:/program files (x86)/microchip/mplab c30/bin/bin/../../lib\libc-coff.a(strtok.o) (strspn)
c:/program files (x86)/microchip/mplab c30/bin/bin/../../lib\libc-coff.a(strcspn.o)
                              c:/program files (x86)/microchip/mplab c30/bin/bin/../../lib\libc-coff.a(strtok.o) (strcspn)
c:/program files (x86)/microchip/mplab c30/bin/bin/../../lib\libc-coff.a(isspace.o)
                              c:/program files (x86)/microchip/mplab c30/bin/bin/../../lib\libc-coff.a(xstoul.o) (isspace)
c:/program files (x86)/microchip/mplab c30/bin/bin/../../lib\libc-coff.a(memchr.o)
                              c:/program files (x86)/microchip/mplab c30/bin/bin/../../lib\libc-coff.a(xstoul.o) (memchr)
c:/program files (x86)/microchip/mplab c30/bin/bin/../../lib\libc-coff.a(errno.o)
                              c:/program files (x86)/microchip/mplab c30/bin/bin/../../lib\libc-coff.a(xstoul.o) (errno)
c:/program files (x86)/microchip/mplab c30/bin/bin/../../lib\libc-coff.a(xprintf.io)
                              c:/program files (x86)/microchip/mplab c30/bin/bin/../../lib\libc-coff.a(sprintf.io) (__iPrintf)
c:/program files (x86)/microchip/mplab c30/bin/bin/../../lib\libc-coff.a(xstopfx.o)
                              c:/program files (x86)/microchip/mplab c30/bin/bin/../../lib\libc-coff.a(xstod.o) (_Stopfx)
c:/program files (x86)/microchip/mplab c30/bin/bin/../../lib\libc-coff.a(xstoflt.o)
                              c:/program files (x86)/microchip/mplab c30/bin/bin/../../lib\libc-coff.a(xstod.o) (_Stoflt)
c:/program files (x86)/microchip/mplab c30/bin/bin/../../lib\libc-coff.a(xstoxflt.o)
                              c:/program files (x86)/microchip/mplab c30/bin/bin/../../lib\libc-coff.a(xstod.o) (_Stoxflt)
c:/program files (x86)/microchip/mplab c30/bin/bin/../../lib\libc-coff.a(xfdscale.o)
                              c:/program files (x86)/microchip/mplab c30/bin/bin/../../lib\libc-coff.a(xstod.o) (_FDscale)
c:/program files (x86)/microchip/mplab c30/bin/bin/../../lib\libc-coff.a(xdtento.o)
                              c:/program files (x86)/microchip/mplab c30/bin/bin/../../lib\libc-coff.a(xstod.o) (_FDtento)
c:/program files (x86)/microchip/mplab c30/bin/bin/../../lib\libc-coff.a(xgetmem.o)
                              c:/program files (x86)/microchip/mplab c30/bin/bin/../../lib\libc-coff.a(malloc.o) (_Getmem)
c:/program files (x86)/microchip/mplab c30/bin/bin/../../lib\libc-coff.a(xprintf.o)
                              c:/program files (x86)/microchip/mplab c30/bin/bin/../../lib\libc-coff.a(sprintf.o) (_Printf)
c:/program files (x86)/microchip/mplab c30/bin/bin/../../lib\libc-coff.a(xscanf.io)
                              c:/program files (x86)/microchip/mplab c30/bin/bin/../../lib\libc-coff.a(sscanf.io) (__iScanf)
c:/program files (x86)/microchip/mplab c30/bin/bin/../../lib\libc-coff.a(xgetzone.o)
                              c:/program files (x86)/microchip/mplab c30/bin/bin/../../lib\libc-coff.a(localtim.o) (_Getzone)
c:/program files (x86)/microchip/mplab c30/bin/bin/../../lib\libc-coff.a(xgettime.o)
                              c:/program files (x86)/microchip/mplab c30/bin/bin/../../lib\libc-coff.a(localtim.o) (_Gettime)
c:/program files (x86)/microchip/mplab c30/bin/bin/../../lib\libc-coff.a(strtol.o)
                              c:/program files (x86)/microchip/mplab c30/bin/bin/../../lib\libc-coff.a(localtim.o) (strtol)
c:/program files (x86)/microchip/mplab c30/bin/bin/../../lib\libc-coff.a(xttotm.o)
                              c:/program files (x86)/microchip/mplab c30/bin/bin/../../lib\libc-coff.a(mktime.o) (_Daysto)
c:/program files (x86)/microchip/mplab c30/bin/bin/../../lib\libc-coff.a(xstrftim.o)
                              c:/program files (x86)/microchip/mplab c30/bin/bin/../../lib\libc-coff.a(asctime.o) (_CStrftime)
c:/program files (x86)/microchip/mplab c30/bin/bin/../../lib\libc-coff.a(xvacopy.o)
                              c:/program files (x86)/microchip/mplab c30/bin/bin/../../lib\libc-coff.a(xprintf.io) (_Vacopy)
c:/program files (x86)/microchip/mplab c30/bin/bin/../../lib\libc-coff.a(xputfld.io)
                              c:/program files (x86)/microchip/mplab c30/bin/bin/../../lib\libc-coff.a(xprintf.io) (__iPutfld)
c:/program files (x86)/microchip/mplab c30/bin/bin/../../lib\libc-coff.a(xputtxt.o)
                              c:/program files (x86)/microchip/mplab c30/bin/bin/../../lib\libc-coff.a(xprintf.io) (_Puttxt)
c:/program files (x86)/microchip/mplab c30/bin/bin/../../lib\libc-coff.a(isalnum.o)
                              c:/program files (x86)/microchip/mplab c30/bin/bin/../../lib\libc-coff.a(xstopfx.o) (isalnum)
c:/program files (x86)/microchip/mplab c30/bin/bin/../../lib\libc-coff.a(xfdnorm.o)
                              c:/program files (x86)/microchip/mplab c30/bin/bin/../../lib\libc-coff.a(xfdscale.o) (_FDnorm)
c:/program files (x86)/microchip/mplab c30/bin/bin/../../lib\libc-coff.a(xfdunsca.o)
                              c:/program files (x86)/microchip/mplab c30/bin/bin/../../lib\libc-coff.a(xdtento.o) (_FDunscale)
c:/program files (x86)/microchip/mplab c30/bin/bin/../../lib\libc-coff.a(xferaise.o)
                              c:/program files (x86)/microchip/mplab c30/bin/bin/../../lib\libc-coff.a(xdtento.o) (_Feraise)
c:/program files (x86)/microchip/mplab c30/bin/bin/../../lib\libc-coff.a(xputfld.o)
                              c:/program files (x86)/microchip/mplab c30/bin/bin/../../lib\libc-coff.a(xprintf.o) (_Putfld)
c:/program files (x86)/microchip/mplab c30/bin/bin/../../lib\libc-coff.a(xgetfld.io)
                              c:/program files (x86)/microchip/mplab c30/bin/bin/../../lib\libc-coff.a(xscanf.io) (__iGetfld)
c:/program files (x86)/microchip/mplab c30/bin/bin/../../lib\libc-coff.a(isalpha.o)
                              c:/program files (x86)/microchip/mplab c30/bin/bin/../../lib\libc-coff.a(xgetzone.o) (isalpha)
c:/program files (x86)/microchip/mplab c30/bin/bin/../../lib\libc-coff.a(xisdst.o)
                              c:/program files (x86)/microchip/mplab c30/bin/bin/../../lib\libc-coff.a(xttotm.o) (_Isdst)
c:/program files (x86)/microchip/mplab c30/bin/bin/../../lib\libc-coff.a(xgentime.o)
                              c:/program files (x86)/microchip/mplab c30/bin/bin/../../lib\libc-coff.a(xstrftim.o) (_Gentime)
c:/program files (x86)/microchip/mplab c30/bin/bin/../../lib\libc-coff.a(xlitob.o)
                              c:/program files (x86)/microchip/mplab c30/bin/bin/../../lib\libc-coff.a(xputfld.io) (_Litob)
c:/program files (x86)/microchip/mplab c30/bin/bin/../../lib\libc-coff.a(xldtob.o)
                              c:/program files (x86)/microchip/mplab c30/bin/bin/../../lib\libc-coff.a(xputfld.o) (_Ldtob)
c:/program files (x86)/microchip/mplab c30/bin/bin/../../lib\libc-coff.a(xgetint.o)
                              c:/program files (x86)/microchip/mplab c30/bin/bin/../../lib\libc-coff.a(xgetfld.io) (_Getint)
c:/program files (x86)/microchip/mplab c30/bin/bin/../../lib\libc-coff.a(xgetstr.o)
                              c:/program files (x86)/microchip/mplab c30/bin/bin/../../lib\libc-coff.a(xgetfld.io) (_Getstr)
c:/program files (x86)/microchip/mplab c30/bin/bin/../../lib\libc-coff.a(xatexit.o)
                              c:/program files (x86)/microchip/mplab c30/bin/bin/../../lib\libc-coff.a(xisdst.o) (_Atexit)
c:/program files (x86)/microchip/mplab c30/bin/bin/../../lib\libc-coff.a(xgetdst.o)
                              c:/program files (x86)/microchip/mplab c30/bin/bin/../../lib\libc-coff.a(xisdst.o) (_Getdst)
c:/program files (x86)/microchip/mplab c30/bin/bin/../../lib\libc-coff.a(xldunsca.o)
                              c:/program files (x86)/microchip/mplab c30/bin/bin/../../lib\libc-coff.a(xldtob.o) (_LDunscale)
c:/program files (x86)/microchip/mplab c30/bin/bin/../../lib\libc-coff.a(xldscale.o)
                              c:/program files (x86)/microchip/mplab c30/bin/bin/../../lib\libc-coff.a(xldtob.o) (_LDscale)
c:/program files (x86)/microchip/mplab c30/bin/bin/../../lib\libc-coff.a(ldiv.o)
                              c:/program files (x86)/microchip/mplab c30/bin/bin/../../lib\libc-coff.a(xldtob.o) (ldiv)
c:/program files (x86)/microchip/mplab c30/bin/bin/../../lib\libc-coff.a(xgenld.o)
                              c:/program files (x86)/microchip/mplab c30/bin/bin/../../lib\libc-coff.a(xldtob.o) (_Genld)
c:/program files (x86)/microchip/mplab c30/bin/bin/../../lib\libc-coff.a(xstoll.o)
                              c:/program files (x86)/microchip/mplab c30/bin/bin/../../lib\libc-coff.a(xgetint.o) (_Stoll)
c:/program files (x86)/microchip/mplab c30/bin/bin/../../lib\libc-coff.a(xstoull.o)
                              c:/program files (x86)/microchip/mplab c30/bin/bin/../../lib\libc-coff.a(xgetint.o) (_Stoull)
c:/program files (x86)/microchip/mplab c30/bin/bin/../../lib\libc-coff.a(xdnorm.o)
                              c:/program files (x86)/microchip/mplab c30/bin/bin/../../lib\libc-coff.a(xldunsca.o) (_Dnorm)
c:/program files (x86)/microchip/mplab c30/bin/bin/../../lib\libc-coff.a(div.o)
                              c:/program files (x86)/microchip/mplab c30/bin/bin/../../lib\libc-coff.a(xgenld.o) (div)
c:/program files (x86)/microchip/mplab c30/bin/bin/../../lib\libm-coff.a(udivsi3.o)
                              BigInt.o (__udivsi3)
c:/program files (x86)/microchip/mplab c30/bin/bin/../../lib\libm-coff.a(divsf3.o)
                              HWlib.o (__divsf3)
c:/program files (x86)/microchip/mplab c30/bin/bin/../../lib\libm-coff.a(fgtge.o)
                              HWlib.o (__gtsf2)
c:/program files (x86)/microchip/mplab c30/bin/bin/../../lib\libm-coff.a(fixunssfsi.o)
                              HWlib.o (__fixunssfsi)
c:/program files (x86)/microchip/mplab c30/bin/bin/../../lib\libm-coff.a(floatsisf.o)
                              HWlib.o (__floatsisf)
c:/program files (x86)/microchip/mplab c30/bin/bin/../../lib\libm-coff.a(addsf3.o)
                              x_cJSON.o (__subsf3)
c:/program files (x86)/microchip/mplab c30/bin/bin/../../lib\libm-coff.a(mulsf3.o)
                              HWlib.o (__mulsf3)
c:/program files (x86)/microchip/mplab c30/bin/bin/../../lib\libm-coff.a(feqltle.o)
                              taskFlyport.o (__eqsf2)
c:/program files (x86)/microchip/mplab c30/bin/bin/../../lib\libm-coff.a(divmoddi3.o)
                              Tick.o (__udivdi3)
c:/program files (x86)/microchip/mplab c30/bin/bin/../../lib\libm-coff.a(muldi3.o)
                              WFMac_24G.o (__muldi3)
c:/program files (x86)/microchip/mplab c30/bin/bin/../../lib\libm-coff.a(powf.o)
                              x_cJSON.o (powf)
c:/program files (x86)/microchip/mplab c30/bin/bin/../../lib\libm-coff.a(fixsfsi.o)
                              x_cJSON.o (__fixsfsi)
c:/program files (x86)/microchip/mplab c30/bin/bin/../../lib\libm-coff.a(floorf.o)
                              x_cJSON.o (floorf)
c:/program files (x86)/microchip/mplab c30/bin/bin/../../lib\libm-coff.a(mulsi3.o)
                              c:/program files (x86)/microchip/mplab c30/bin/bin/../../lib\libc-coff.a(xstoul.o) (__mulsi3)
c:/program files (x86)/microchip/mplab c30/bin/bin/../../lib\libm-coff.a(divsi3.o)
                              c:/program files (x86)/microchip/mplab c30/bin/bin/../../lib\libc-coff.a(localtim.o) (__divsi3)
c:/program files (x86)/microchip/mplab c30/bin/bin/../../lib\libm-coff.a(floatdisf.o)
                              c:/program files (x86)/microchip/mplab c30/bin/bin/../../lib\libc-coff.a(mktime.o) (__floatdisf)
c:/program files (x86)/microchip/mplab c30/bin/bin/../../lib\libm-coff.a(modsi3.o)
                              c:/program files (x86)/microchip/mplab c30/bin/bin/../../lib\libc-coff.a(xttotm.o) (__modsi3)
c:/program files (x86)/microchip/mplab c30/bin/bin/../../lib\libm-coff.a(umodsi3.o)
                              c:/program files (x86)/microchip/mplab c30/bin/bin/../../lib\libc-coff.a(xttotm.o) (__umodsi3)
c:/program files (x86)/microchip/mplab c30/bin/bin/../../lib\libm-coff.a(extendsfdf.o)
                              c:/program files (x86)/microchip/mplab c30/bin/bin/../../lib\libc-coff.a(xputfld.o) (__extendsfdf2)
c:/program files (x86)/microchip/mplab c30/bin/bin/../../lib\libm-coff.a(deqltle.o)
                              c:/program files (x86)/microchip/mplab c30/bin/bin/../../lib\libc-coff.a(xldtob.o) (__ltdf2)
c:/program files (x86)/microchip/mplab c30/bin/bin/../../lib\libm-coff.a(fixdfsi.o)
                              c:/program files (x86)/microchip/mplab c30/bin/bin/../../lib\libc-coff.a(xldtob.o) (__fixdfsi)
c:/program files (x86)/microchip/mplab c30/bin/bin/../../lib\libm-coff.a(floatsidf.o)
                              c:/program files (x86)/microchip/mplab c30/bin/bin/../../lib\libc-coff.a(xldtob.o) (__floatsidf)
c:/program files (x86)/microchip/mplab c30/bin/bin/../../lib\libm-coff.a(subdf3.o)
                              c:/program files (x86)/microchip/mplab c30/bin/bin/../../lib\libc-coff.a(xldtob.o) (__subdf3)
c:/program files (x86)/microchip/mplab c30/bin/bin/../../lib\libm-coff.a(dgtge.o)
                              c:/program files (x86)/microchip/mplab c30/bin/bin/../../lib\libc-coff.a(xldtob.o) (__gtdf2)
c:/program files (x86)/microchip/mplab c30/bin/bin/../../lib\libm-coff.a(muldf3.o)
                              c:/program files (x86)/microchip/mplab c30/bin/bin/../../lib\libc-coff.a(xldtob.o) (__muldf3)
c:/program files (x86)/microchip/mplab c30/bin/bin/../../lib\libm-coff.a(divdf3.o)
                              c:/program files (x86)/microchip/mplab c30/bin/bin/../../lib\libc-coff.a(xldtob.o) (__divdf3)
c:/program files (x86)/microchip/mplab c30/bin/bin/../../lib\libm-coff.a(funpack2.o)
                              c:/program files (x86)/microchip/mplab c30/bin/bin/../../lib\libm-coff.a(divsf3.o) (_funpack2)
c:/program files (x86)/microchip/mplab c30/bin/bin/../../lib\libm-coff.a(futil.o)
                              c:/program files (x86)/microchip/mplab c30/bin/bin/../../lib\libm-coff.a(divsf3.o) (_fPropagateNaN)
c:/program files (x86)/microchip/mplab c30/bin/bin/../../lib\libm-coff.a(fpack.o)
                              c:/program files (x86)/microchip/mplab c30/bin/bin/../../lib\libm-coff.a(divsf3.o) (_fpack)
c:/program files (x86)/microchip/mplab c30/bin/bin/../../lib\libm-coff.a(fcompare.o)
                              c:/program files (x86)/microchip/mplab c30/bin/bin/../../lib\libm-coff.a(fgtge.o) (_fcompare)
c:/program files (x86)/microchip/mplab c30/bin/bin/../../lib\libm-coff.a(funpack.o)
                              c:/program files (x86)/microchip/mplab c30/bin/bin/../../lib\libm-coff.a(fixunssfsi.o) (_funpack)
c:/program files (x86)/microchip/mplab c30/bin/bin/../../lib\libm-coff.a(umuldi3.o)
                              c:/program files (x86)/microchip/mplab c30/bin/bin/../../lib\libm-coff.a(muldi3.o) (__umuldi3)
c:/program files (x86)/microchip/mplab c30/bin/bin/../../lib\libm-coff.a(fchop.o)
                              c:/program files (x86)/microchip/mplab c30/bin/bin/../../lib\libm-coff.a(powf.o) (_fchop)
c:/program files (x86)/microchip/mplab c30/bin/bin/../../lib\libm-coff.a(_frexpf.o)
                              c:/program files (x86)/microchip/mplab c30/bin/bin/../../lib\libm-coff.a(powf.o) (_frexpf)
c:/program files (x86)/microchip/mplab c30/bin/bin/../../lib\libm-coff.a(ldexpf.o)
                              c:/program files (x86)/microchip/mplab c30/bin/bin/../../lib\libm-coff.a(powf.o) (ldexpf)
c:/program files (x86)/microchip/mplab c30/bin/bin/../../lib\libm-coff.a(logf.o)
                              c:/program files (x86)/microchip/mplab c30/bin/bin/../../lib\libm-coff.a(powf.o) (logf)
c:/program files (x86)/microchip/mplab c30/bin/bin/../../lib\libm-coff.a(expf.o)
                              c:/program files (x86)/microchip/mplab c30/bin/bin/../../lib\libm-coff.a(powf.o) (expf)
c:/program files (x86)/microchip/mplab c30/bin/bin/../../lib\libm-coff.a(dcompare.o)
                              c:/program files (x86)/microchip/mplab c30/bin/bin/../../lib\libm-coff.a(deqltle.o) (_dcompare)
c:/program files (x86)/microchip/mplab c30/bin/bin/../../lib\libm-coff.a(dunpack.o)
                              c:/program files (x86)/microchip/mplab c30/bin/bin/../../lib\libm-coff.a(fixdfsi.o) (_dunpack)
c:/program files (x86)/microchip/mplab c30/bin/bin/../../lib\libm-coff.a(dunpack2.o)
                              c:/program files (x86)/microchip/mplab c30/bin/bin/../../lib\libm-coff.a(muldf3.o) (_dunpack2)
c:/program files (x86)/microchip/mplab c30/bin/bin/../../lib\libm-coff.a(floatdidf.o)
                              c:/program files (x86)/microchip/mplab c30/bin/bin/../../lib\libm-coff.a(floatsidf.o) (__floatdidf)
c:/program files (x86)/microchip/mplab c30/bin/bin/../../lib\libm-coff.a(adddf3.o)
                              c:/program files (x86)/microchip/mplab c30/bin/bin/../../lib\libm-coff.a(subdf3.o) (__adddf3)
c:/program files (x86)/microchip/mplab c30/bin/bin/../../lib\libm-coff.a(dpack.o)
                              c:/program files (x86)/microchip/mplab c30/bin/bin/../../lib\libm-coff.a(muldf3.o) (_dpack)
c:/program files (x86)/microchip/mplab c30/bin/bin/../../lib\libm-coff.a(dtype.o)
                              c:/program files (x86)/microchip/mplab c30/bin/bin/../../lib\libm-coff.a(dcompare.o) (_dtype)
c:/program files (x86)/microchip/mplab c30/bin/bin/../../lib\libm-coff.a(dpropagateNaN.o)
                              c:/program files (x86)/microchip/mplab c30/bin/bin/../../lib\libm-coff.a(dunpack2.o) (_dPropagateNaN)
c:/program files (x86)/microchip/mplab c30/bin/bin/../../lib\libpic30-coff.a(sbrk.o)
                              c:/program files (x86)/microchip/mplab c30/bin/bin/../../lib\libc-coff.a(xgetmem.o) (sbrk)
c:/program files (x86)/microchip/mplab c30/bin/bin/../../lib\libpic30-coff.a(getenv.o)
                              c:/program files (x86)/microchip/mplab c30/bin/bin/../../lib\libc-coff.a(xgetzone.o) (getenv)
c:/program files (x86)/microchip/mplab c30/bin/bin/../../lib\libpic30-coff.a(brk.o)
                              c:/program files (x86)/microchip/mplab c30/bin/bin/../../lib\libpic30-coff.a(sbrk.o) (brk)


Program Memory  [Origin = 0x200, Length = 0x2a9f8]

section                    address   length (PC units)   length (bytes) (dec)
-------                    -------   -----------------   --------------------
.text                        0x200              0x48e2          0x6d53  (27987)
.const                      0x4ae2              0x1a5e          0x278d  (10125)
.text                       0x6540              0xdffe         0x14ffd  (86013)
.dinit                     0x1453e               0x884           0xcc6  (3270)
.text                      0x14dc2              0x91ae          0xda85  (55941)

                     Total program memory used (bytes):        0x2cc28  (183336) 70%


Data Memory  [Origin = 0x800, Length = 0x4000]

section                    address      alignment gaps    total length  (dec)
-------                    -------      --------------    -------------------
BigInt_helper_vars           0x800                   0             0xc  (12)
.bss                         0x80c                   0          0x268c  (9868)
.data                       0x2e98                   0           0x2ea  (746)
.bss                        0x3182                   0           0x192  (402)
.data                       0x3314                   0           0x2d6  (726)
.bss                        0x35ea                   0           0x222  (546)
.data                       0x380c                   0            0xdc  (220)
.bss                        0x38e8                   0            0xb0  (176)
.dconst                     0x3998                   0            0x32  (50)
.data                       0x39ca                   0            0x5e  (94)
.dconst                     0x3a28                   0            0x2a  (42)
.bss                        0x3a52                   0            0x28  (40)
.data                       0x3a7a                   0            0x90  (144)
.bss                        0x3b0a                   0            0x36  (54)
.data                       0x3b40                   0            0x1a  (26)
.bss                        0x3b5a                   0            0x18  (24)
.data                       0x3b72                   0            0x18  (24)
.bss                        0x3b8a                   0            0x40  (64)
.data                       0x3bca                   0            0x24  (36)
.bss                        0x3bee                   0            0x1e  (30)
.dconst                     0x3c0c                   0             0xe  (14)
.bss                        0x3c1a                   0            0x18  (24)
.dconst                     0x3c32                   0             0xc  (12)
.bss                        0x3c3e                   0             0xa  (10)
.data                       0x3c48                   0            0x14  (20)
.bss                        0x3c5c                   0             0xa  (10)
.data                       0x3c66                   0            0x10  (16)
.bss                        0x3c76                   0             0x8  (8)
.dconst                     0x3c7e                   0             0x8  (8)
.bss                        0x3c86                   0            0x1a  (26)
.data                       0x3ca0                   0             0xe  (14)
.bss                        0x3cae                   0             0x4  (4)
.data                       0x3cb2                   0             0x8  (8)
.bss                        0x3cba                   0             0x4  (4)
.data                       0x3cbe                   0             0x4  (4)
.dconst                     0x3cc2                   0             0x4  (4)
.data                       0x3cc6                   0             0x4  (4)
.bss                        0x3cca                   0             0x6  (6)
.data                       0x3cd0                   0             0x2  (2)
.pbss                       0x3cd2                   0             0x2  (2)
.data                       0x3cd4                   0             0x6  (6)
.bss                        0x3cda                   0             0x2  (2)
.data                       0x3cdc                   0             0x6  (6)
.bss                        0x3ce2                   0             0x2  (2)
.data                       0x3ce4                   0             0x6  (6)
.pbss                       0x3cea                   0             0x2  (2)
.bss                        0x3cec                   0             0x2  (2)
.data                       0x3cee                   0             0x2  (2)
.pbss                       0x3cf0                   0             0x2  (2)
.data                       0x3cf2                   0             0x2  (2)
.bss                        0x3cf4                   0             0x4  (4)
.data                       0x3cf8                   0             0x6  (6)
.bss                        0x3cfe                   0             0x2  (2)
.data                       0x3d00                   0             0x2  (2)
.bss                        0x3d02                   0             0x4  (4)
.data                       0x3d06                   0             0x6  (6)
.bss                        0x3d0c                   0             0x2  (2)
.dconst                     0x3d0e                   0             0x2  (2)
.data                       0x3d10                   0             0x4  (4)
.dconst                     0x3d14                   0             0x2  (2)
.data                       0x3d16                   0             0x2  (2)
.bss                        0x3d18                   0             0x2  (2)
my_heap                     0x3d1a                   0           0x4ce  (1230)

                        Total data memory used (bytes):         0x39e8  (14824) 90%


Dynamic Memory Usage

region                     address                      maximum length  (dec)
------                     -------                      ---------------------
heap                        0x3d1a                               0x4ce  (1230)
stack                       0x41e8                               0x618  (1560)

                        Maximum dynamic memory (bytes):          0xae6  (2790)


External Symbols in Data Memory (by address):

                    0x0800                  __iA
                    0x0802                  __xA
                    0x0804                  __iB
                    0x0806                  __xB
                    0x0808                  __iR
                    0x080a                  __wC
                    0x2022                  _TimerOn
                    0x202c                  _respHeader
                    0x2252                  _respBody
                    0x24a4                  _AppConfig
                    0x254e                  _xIPAddress
                    0x25b2                  _xWord
                    0x25b4                  _xChar
                    0x25b6                  _xByte
                    0x25b8                  _xByte2
                    0x25b9                  _xByte3
                    0x25ba                  _xInt
                    0x25bc                  _xInt2
                    0x25be                  _xNode
                    0x25c8                  _xQueue
                    0x25ca                  _BUFFER_UDP_LEN
                    0x25cc                  _udpBuffer
                    0x25ce                  _udpRxLenGlobal
                    0x25d0                  _udpSocket
                    0x25d2                  _xUDPPort
                    0x25d4                  _p_udp_data
                    0x25d6                  _p_udp_wifiram
                    0x25d8                  _xUDPRemoteHost
                    0x25dc                  _udpWord
                    0x25de                  _udpInt
                    0x25e0                  _udpByte
                    0x25e2                  _UDPoverflowFlag
                    0x25e4                  _NETConf
                    0x2738                  _WFStatusold
                    0x273a                  _xNet
                    0x2768                  _udpRxLen
                    0x276a                  _udpBuffer1
                    0x2832                  _tmp_len
                    0x2834                  _hTCPIPTask
                    0x2836                  _hFlyTask
                    0x2838                  _hTimerTask
                    0x283a                  _xStatus
                    0x2858                  _E
                    0x2860                  _N
                    0x2868                  _Y
                    0x2870                  _rsaData
                    0x2970                  _eData
                    0x2974                  _rsaTemp
                    0x2bd6                  _sslBuffer
                    0x2dd6                  _sslHash
                    0x2e30                  _sslSession
                    0x2e80                  _sslSessionStubs
                    0x2e90                  _ptrHS
                    0x2e92                  _isStubUsed
                    0x2e94                  _isHashUsed
                    0x2e96                  _isBufferUsed
                    0x2e98                  _LATs
                    0x2ecc                  _TRISs
                    0x2f00                  _PORTs
                    0x2f34                  _CNPUs
                    0x2f68                  _CNPDs
                    0x2f9c                  _CNPos
                    0x2fd0                  _IOPos
                    0x3004                  _an
                    0x300e                  _UMODEs
                    0x3016                  _USTAs
                    0x301e                  _UBRGs
                    0x3026                  _UIFSs
                    0x302e                  _UIECs
                    0x3036                  _UTXREGs
                    0x303e                  _URXREGs
                    0x3046                  _UTXIPos
                    0x304e                  _URXIPos
                    0x3056                  _AD1CFGL
                    0x3058                  _AD1CFGH
                    0x305a                  _AD1CONF1
                    0x305c                  _AD1CONF2
                    0x305e                  _AD1CONF3
                    0x3060                  _AD1CH
                    0x3062                  _AD1CSL
                    0x3064                  _OCCON1s
                    0x3076                  _OCCON2s
                    0x3088                  _OCRs
                    0x309a                  _OCRSs
                    0x30ac                  _RPORs
                    0x30e0                  _RPFunc
                    0x30f6                  _RPIORPin
                    0x312a                  _TCONs
                    0x3134                  _OCM
                    0x3146                  _RPIRs
                    0x3164                  _RPIRPos
                    0x3314                  __Tls_setup__Times
                    0x3316                  __Times
                    0x3480                  _connectionFailureStrings
                    0x34a8                  _connectionLostStrings
                    0x34b4                  _deauthDisssocReasonCodes
                    0x34e6                  _statusCodes
                    0x3546                  _wpsState
                    0x3564                  _wpsConfigErr
                    0x35ba                  _moduleName
                    0x375c                  _UDPSocketInfo
                    0x37bc                  _activeUDPSocket
                    0x37be                  _UDPTxCount
                    0x37c0                  _UDPRxCount
                    0x37c2                  _epochString
                    0x37f4                  _now
                    0x37f8                  _ts
                    0x37fa                  _mytime
                    0x38e8                  _lastBlock
                    0x394a                  _SMTPClient
                    0x3964                  _IOMode
                    0x3a7a                  _ConnectionProfileID
                    0x3a7c                  __WFStat
                    0x3a7e                  _WFConnection
                    0x3a80                  _xTCPPort
                    0x3a82                  _xSocket
                    0x3a84                  _xFrontEndStat
                    0x3a86                  _xFrontEndStatRet
                    0x3a88                  _xErr
                    0x3a8a                  _xBool
                    0x3a8c                  _WPAWrong
                    0x3a8e                  _numUdpSocket
                    0x3a90                  _xUDPLocalPort
                    0x3a92                  _xUDPRemotePort
                    0x3a94                  _activeUdpSocket
                    0x3a95                  _callbackUdpSocket
                    0x3a96                  _udpErr
                    0x3a98                  _udpBool
                    0x3a9a                  _datadiscard
                    0x3a9c                  _UDPoverflow
                    0x3a9e                  _xSemFrontEnd
                    0x3aa0                  _xSemHW
                    0x3b3c                  _g_rxBufferLength
                    0x3b3e                  _WF_hibernate
                    0x3bb2                  _RawMoveState
                    0x3bf4                  _remoteNode
                    0x3c48                  _epoch
                    0x3c4c                  _epochtime
                    0x3c50                  _GMT_hour_adding
                    0x3c52                  __Tls_setup__Randseed
                    0x3c54                  __Randseed
                    0x3c58                  __Tls_setup__Randinit
                    0x3c5a                  __Randinit
                    0x3c66                  _DHCPAssigned
                    0x3c68                  _g_DhcpRenew
                    0x3c6a                  _g_DhcpRetryTimer
                    0x3c6e                  _g_DhcpSuccessful
                    0x3c70                  _g_WiFiConnectionChanged
                    0x3c72                  _g_WiFiConnection
                    0x3c74                  _g_dhcpInProgress
                    0x3c7c                  _g_rxDtim
                    0x3c8e                  _isr_int2
                    0x3c90                  _isr_int3
                    0x3c92                  _isr_int4
                    0x3c98                  _arpt
                    0x3ca0                  __Size_block
                    0x3ca2                  __Aldata
                    0x3cb2                  _g_HostRAWDataPacketReceived
                    0x3cb4                  _g_RawIndexPastEnd
                    0x3cb6                  _WFArpBroadcastIntervalSec
                    0x3cc6                  __Tls_setup_errno
                    0x3cc8                  _errno
                    0x3cd0                  _DHCPClientInitializedOnce
                    0x3cdc                  _uxCriticalNesting
                    0x3cde                  _alarmflag
                    0x3ce6                  _pxCurrentTCB
                    0x3cf6                  _RawWindowState
                    0x3cf8                  _g_WaitingForMgmtResponse
                    0x3cfc                  _WFNetworkFound
                    0x3cfe                  _myRSSI
                    0x3d00                  _ScanCompleted
                    0x3d06                  _socket
                    0x3d08                  ___C30_UART
                    0x3d18                  ___curbrk

External Symbols in Data Memory (by name):

                    0x3058                  _AD1CFGH
                    0x3056                  _AD1CFGL
                    0x3060                  _AD1CH
                    0x305a                  _AD1CONF1
                    0x305c                  _AD1CONF2
                    0x305e                  _AD1CONF3
                    0x3062                  _AD1CSL
                    0x24a4                  _AppConfig
                    0x25ca                  _BUFFER_UDP_LEN
                    0x2f68                  _CNPDs
                    0x2f34                  _CNPUs
                    0x2f9c                  _CNPos
                    0x3a7a                  _ConnectionProfileID
                    0x3c66                  _DHCPAssigned
                    0x3cd0                  _DHCPClientInitializedOnce
                    0x2858                  _E
                    0x3c50                  _GMT_hour_adding
                    0x3964                  _IOMode
                    0x2fd0                  _IOPos
                    0x2e98                  _LATs
                    0x2860                  _N
                    0x25e4                  _NETConf
                    0x3064                  _OCCON1s
                    0x3076                  _OCCON2s
                    0x3134                  _OCM
                    0x309a                  _OCRSs
                    0x3088                  _OCRs
                    0x2f00                  _PORTs
                    0x30e0                  _RPFunc
                    0x30f6                  _RPIORPin
                    0x3164                  _RPIRPos
                    0x3146                  _RPIRs
                    0x30ac                  _RPORs
                    0x3bb2                  _RawMoveState
                    0x3cf6                  _RawWindowState
                    0x394a                  _SMTPClient
                    0x3d00                  _ScanCompleted
                    0x312a                  _TCONs
                    0x2ecc                  _TRISs
                    0x2022                  _TimerOn
                    0x301e                  _UBRGs
                    0x37c0                  _UDPRxCount
                    0x375c                  _UDPSocketInfo
                    0x37be                  _UDPTxCount
                    0x3a9c                  _UDPoverflow
                    0x25e2                  _UDPoverflowFlag
                    0x302e                  _UIECs
                    0x3026                  _UIFSs
                    0x300e                  _UMODEs
                    0x304e                  _URXIPos
                    0x303e                  _URXREGs
                    0x3016                  _USTAs
                    0x3046                  _UTXIPos
                    0x3036                  _UTXREGs
                    0x3cb6                  _WFArpBroadcastIntervalSec
                    0x3a7e                  _WFConnection
                    0x3cfc                  _WFNetworkFound
                    0x2738                  _WFStatusold
                    0x3b3e                  _WF_hibernate
                    0x3a8c                  _WPAWrong
                    0x2868                  _Y
                    0x3ca2                  __Aldata
                    0x3c5a                  __Randinit
                    0x3c54                  __Randseed
                    0x3ca0                  __Size_block
                    0x3316                  __Times
                    0x3c58                  __Tls_setup__Randinit
                    0x3c52                  __Tls_setup__Randseed
                    0x3314                  __Tls_setup__Times
                    0x3cc6                  __Tls_setup_errno
                    0x3a7c                  __WFStat
                    0x3d08                  ___C30_UART
                    0x3d18                  ___curbrk
                    0x0800                  __iA
                    0x0804                  __iB
                    0x0808                  __iR
                    0x080a                  __wC
                    0x0802                  __xA
                    0x0806                  __xB
                    0x37bc                  _activeUDPSocket
                    0x3a94                  _activeUdpSocket
                    0x3cde                  _alarmflag
                    0x3004                  _an
                    0x3c98                  _arpt
                    0x3a95                  _callbackUdpSocket
                    0x3480                  _connectionFailureStrings
                    0x34a8                  _connectionLostStrings
                    0x3a9a                  _datadiscard
                    0x34b4                  _deauthDisssocReasonCodes
                    0x2970                  _eData
                    0x3c48                  _epoch
                    0x37c2                  _epochString
                    0x3c4c                  _epochtime
                    0x3cc8                  _errno
                    0x3c68                  _g_DhcpRenew
                    0x3c6a                  _g_DhcpRetryTimer
                    0x3c6e                  _g_DhcpSuccessful
                    0x3cb2                  _g_HostRAWDataPacketReceived
                    0x3cb4                  _g_RawIndexPastEnd
                    0x3cf8                  _g_WaitingForMgmtResponse
                    0x3c72                  _g_WiFiConnection
                    0x3c70                  _g_WiFiConnectionChanged
                    0x3c74                  _g_dhcpInProgress
                    0x3b3c                  _g_rxBufferLength
                    0x3c7c                  _g_rxDtim
                    0x2836                  _hFlyTask
                    0x2834                  _hTCPIPTask
                    0x2838                  _hTimerTask
                    0x2e96                  _isBufferUsed
                    0x2e94                  _isHashUsed
                    0x2e92                  _isStubUsed
                    0x3c8e                  _isr_int2
                    0x3c90                  _isr_int3
                    0x3c92                  _isr_int4
                    0x38e8                  _lastBlock
                    0x35ba                  _moduleName
                    0x3cfe                  _myRSSI
                    0x37fa                  _mytime
                    0x37f4                  _now
                    0x3a8e                  _numUdpSocket
                    0x25d4                  _p_udp_data
                    0x25d6                  _p_udp_wifiram
                    0x2e90                  _ptrHS
                    0x3ce6                  _pxCurrentTCB
                    0x3bf4                  _remoteNode
                    0x2252                  _respBody
                    0x202c                  _respHeader
                    0x2870                  _rsaData
                    0x2974                  _rsaTemp
                    0x3d06                  _socket
                    0x2bd6                  _sslBuffer
                    0x2dd6                  _sslHash
                    0x2e30                  _sslSession
                    0x2e80                  _sslSessionStubs
                    0x34e6                  _statusCodes
                    0x2832                  _tmp_len
                    0x37f8                  _ts
                    0x3a98                  _udpBool
                    0x25cc                  _udpBuffer
                    0x276a                  _udpBuffer1
                    0x25e0                  _udpByte
                    0x3a96                  _udpErr
                    0x25de                  _udpInt
                    0x2768                  _udpRxLen
                    0x25ce                  _udpRxLenGlobal
                    0x25d0                  _udpSocket
                    0x25dc                  _udpWord
                    0x3cdc                  _uxCriticalNesting
                    0x3564                  _wpsConfigErr
                    0x3546                  _wpsState
                    0x3a8a                  _xBool
                    0x25b6                  _xByte
                    0x25b8                  _xByte2
                    0x25b9                  _xByte3
                    0x25b4                  _xChar
                    0x3a88                  _xErr
                    0x3a84                  _xFrontEndStat
                    0x3a86                  _xFrontEndStatRet
                    0x254e                  _xIPAddress
                    0x25ba                  _xInt
                    0x25bc                  _xInt2
                    0x273a                  _xNet
                    0x25be                  _xNode
                    0x25c8                  _xQueue
                    0x3a9e                  _xSemFrontEnd
                    0x3aa0                  _xSemHW
                    0x3a82                  _xSocket
                    0x283a                  _xStatus
                    0x3a80                  _xTCPPort
                    0x3a90                  _xUDPLocalPort
                    0x25d2                  _xUDPPort
                    0x25d8                  _xUDPRemoteHost
                    0x3a92                  _xUDPRemotePort
                    0x25b2                  _xWord

External Symbols in Program Memory (by address):

                  0x000200                  __resetPRI
                  0x000222                  __psv_init
                  0x000232                  __data_init
                  0x000232                  __data_init_standard
                  0x000340                  __flash_helper1
                  0x00035c                  __flash_helper2
                  0x000360                  __flash_helper3
                  0x000384                  __flash_helper4
                  0x000386                  __flash_helper5
                  0x000394                  __flash_helper6
                  0x00039a                  _memset
                  0x0003a8                  _strtok
                  0x0003e0                  _strcpy
                  0x0003f0                  _strlen
                  0x0003fe                  _strcat
                  0x00041c                  __Stoul
                  0x000544                  _strcmp
                  0x000568                  _rand
                  0x000612                  _srand
                  0x000634                  _memcpy
                  0x000642                  _strchr
                  0x000654                  _strstr
                  0x00067c                  _memcmp
                  0x000698                  __Stof
                  0x000742                  _strncpy
                  0x000764                  _tolower
                  0x000772                  _malloc
                  0x000816                  _free
                  0x00087e                  sprintf.o:_prout
                  0x00088a                  _sprintf
                  0x00088a                  __isprintf
                  0x0008ac                  sscanf.io:_scin
                  0x0008c4                  __isscanf
                  0x0008d6                  _strncmp
                  0x0008fa                  __Tzoff
                  0x00098c                  _localtime
                  0x0009a0                  __Getptimes
                  0x0009ac                  _asctime
                  0x0009ca                  _mktime
                  0x000afa                  _strspn
                  0x000b1e                  _strcspn
                  0x000b42                  _isspace
                  0x000b52                  _memchr
                  0x000b66                  __Geterrno
                  0x000b72                  __Stopfx
                  0x000c7c                  __Stoflt
                  0x000e40                  __Stoxflt
                  0x00102a                  __FDscale
                  0x00110a                  __FDtento
                  0x0011f8                  __Getmem
                  0x001206                  ___iPrintf
                  0x001206                  __Printf
                  0x001378                  ___iScanf
                  0x001508                  __Getzone
                  0x0015c0                  __Gettime
                  0x001600                  _strtol
                  0x001692                  __Daysto
                  0x0016ca                  __Ttotm
                  0x0017c0                  __CStrftime
                  0x00189e                  __Vacopy
                  0x0018a8                  __Puttxt
                  0x001a3c                  _isalnum
                  0x001a58                  __FDnorm
                  0x001aae                  __FDunscale
                  0x001afa                  __Feraise
                  0x001b10                  ___iPutfld
                  0x001b10                  __Putfld
                  0x001e0a                  ___iGetfld
                  0x001f38                  _isalpha
                  0x001f4c                  xisdst.o:__Tls_dtor_rules
                  0x001f50                  xisdst.o:__Tls_setupx_rules
                  0x001f66                  __Isdst
                  0x00226c                  __Gentime
                  0x00264a                  __Litob
                  0x00295c                  __Ldtob
                  0x002dae                  __Getint
                  0x003060                  __Getstr
                  0x00323a                  __Atexit
                  0x003278                  __Getdst
                  0x003372                  __LDunscale
                  0x0033ca                  __LDscale
                  0x0034c0                  _ldiv
                  0x0034fa                  __Genld
                  0x003762                  __Stoll
                  0x003816                  __Stoull
                  0x0039da                  __Dnorm
                  0x003a72                  _div
                  0x003a88                  ___mulp32peds3
                  0x003a88                  ___mulsi3
                  0x003a88                  ___mulp32eds3
                  0x003ae0                  ___udivsi3
                  0x003b00                  ___divsf3
                  0x003b84                  ___gtsf2
                  0x003b84                  ___gesf2
                  0x003b88                  ___fixunssfsi
                  0x003bbe                  ___floatsisf
                  0x003c14                  ___subsf3
                  0x003c16                  ___addsf3
                  0x003cd0                  ___mulsf3
                  0x003d38                  ___lesf2
                  0x003d38                  ___eqsf2
                  0x003d38                  ___ltsf2
                  0x003d62                  ___udivmoddi3
                  0x003e30                  ___udivdi3
                  0x003e3e                  ___umoddi3
                  0x003e46                  ___divdi3
                  0x003e80                  ___moddi3
                  0x003f52                  ___muldi3
                  0x003fae                  _powf
                  0x004174                  ___fixsfsi
                  0x0041b6                  _floorf
                  0x0041c6                  ___divsi3
                  0x0041e4                  ___floatdisf
                  0x00425c                  ___modsi3
                  0x00427a                  ___umodsi3
                  0x004280                  ___extendsfdf2
                  0x0042be                  ___ltdf2
                  0x0042be                  ___ledf2
                  0x0042be                  ___eqdf2
                  0x0042c8                  ___fixdfsi
                  0x004320                  ___floatsidf
                  0x004326                  ___subdf3
                  0x00432a                  ___gedf2
                  0x00432a                  ___gtdf2
                  0x004334                  ___muldf3
                  0x00441e                  ___divdf3
                  0x0044d2                  __funpack2
                  0x0044e2                  __fPropagateNaN
                  0x0044f4                  __fbopExit
                  0x0044fc                  __fbopReturnNaN
                  0x004502                  __fpack
                  0x00454e                  __fcompare
                  0x004584                  __funpack
                  0x0045ae                  ___umuldi3
                  0x0045f2                  __fchop
                  0x004640                  __frexpf
                  0x00465a                  _ldexpf
                  0x00469e                  _logf
                  0x00474c                  _expf
                  0x004810                  __dcompare
                  0x004862                  __dunpack
                  0x0048b0                  __dunpack2
                  0x0048d2                  __dreturnNaN
                  0x0048d8                  __dunpack2exit
                  0x0048e2                  ___floatdidf
                  0x004950                  ___adddf3
                  0x004a4a                  __dpack
                  0x004aa2                  __dtype
                  0x004ac6                  __dPropagateNaN
                  0x0062ec                  _TCPSocketInitializer
                  0x006414                  _g_RawAccessOutOfBoundsMask
                  0x0065f8                  _TCPInit
                  0x0066d4                  _TCPOpen
                  0x006828                  _TCPWasReset
                  0x00685c                  _TCPIsConnected
                  0x006884                  _TCPDisconnect
                  0x006948                  _TCPClose
                  0x006964                  _TCPGetRemoteInfo
                  0x006990                  _TCPFlush
                  0x0069b2                  _TCPIsPutReady
                  0x006a46                  _TCPPut
                  0x006b12                  _TCPPutArray
                  0x006c4a                  _TCPPutString
                  0x006c68                  _TCPGetTxFIFOFull
                  0x006c96                  _TCPDiscard
                  0x006cb4                  _TCPIsGetReady
                  0x006cf2                  _TCPGet
                  0x006d64                  _TCPGetArray
                  0x006e28                  _TCPGetRxFIFOFree
                  0x006e6c                  _TCPPeekArray
                  0x006f16                  _TCPPeek
                  0x006f2e                  _TCPFindArrayEx
                  0x0071b8                  _TCPFindEx
                  0x0071d6                  _TCPTick
                  0x0076aa                  _TCPProcess
                  0x0088c8                  _TCPAdjustFIFOSize
                  0x008b46                  _TCPStartSSLClient
                  0x008bc6                  _TCPStartSSLClientEx
                  0x008c4a                  _TCPRequestSSLMessage
                  0x008c84                  _TCPSSLIsHandshaking
                  0x008ca8                  _TCPIsSSL
                  0x008cd4                  _TCPSSLHandshakeComplete
                  0x008cec                  _TCPSSLDecryptMAC
                  0x008dfa                  _TCPSSLInPlaceMACEncrypt
                  0x008f08                  _TCPSSLPutRecordHeader
                  0x008f88                  _TCPSSLGetPendingTxSize
                  0x008fc8                  _TCPSSLHandleIncoming
                  0x009286                  _SSLInit
                  0x0092ea                  _SSLPeriodic
                  0x009338                  _SSLStartSession
                  0x00942c                  _SSLTerminate
                  0x009462                  _SSLRxRecord
                  0x0095ec                  _SSLTxRecord
                  0x009684                  _SSLTxMessage
                  0x009720                  _SSLRxHandshake
                  0x00a9e6                  _SSLMACBegin
                  0x00aa70                  _SSLMACAdd
                  0x00aa84                  _SSLMACCalc
                  0x00aad0                  _cJSON_GetErrorPtr
                  0x00abba                  _cJSON_Delete
                  0x00b4d6                  _cJSON_Parse
                  0x00b50e                  _cJSON_Print
                  0x00b51e                  _cJSON_PrintUnformatted
                  0x00bdbe                  _cJSON_GetArraySize
                  0x00bde2                  _cJSON_GetArrayItem
                  0x00be0a                  _cJSON_GetObjectItem
                  0x00be90                  _cJSON_AddItemToArray
                  0x00bec8                  _cJSON_AddItemToObject
                  0x00befa                  _cJSON_AddItemReferenceToArray
                  0x00bf0e                  _cJSON_AddItemReferenceToObject
                  0x00bf26                  _cJSON_DetachItemFromArray
                  0x00bf9e                  _cJSON_DeleteItemFromArray
                  0x00bfb0                  _cJSON_DetachItemFromObject
                  0x00bff4                  _cJSON_DeleteItemFromObject
                  0x00c006                  _cJSON_ReplaceItemInArray
                  0x00c07c                  _cJSON_ReplaceItemInObject
                  0x00c0c4                  _cJSON_CreateNull
                  0x00c0da                  _cJSON_CreateTrue
                  0x00c0f0                  _cJSON_CreateFalse
                  0x00c106                  _cJSON_CreateBool
                  0x00c12c                  _cJSON_CreateNumber
                  0x00c15e                  _cJSON_CreateString
                  0x00c180                  _cJSON_CreateArray
                  0x00c196                  _cJSON_CreateObject
                  0x00c1ac                  _cJSON_CreateIntArray
                  0x00c20a                  _cJSON_CreateFloatArray
                  0x00c262                  _cJSON_CreateDoubleArray
                  0x00c2ba                  _cJSON_CreateStringArray
                  0x00c312                  __dbgwrite
                  0x00c320                  _ADCInit
                  0x00c348                  __ADC1Interrupt
                  0x00c35c                  _ADCVal
                  0x00c380                  _ADCAttach
                  0x00c3b0                  _ADCDetach
                  0x00c3d8                  _IOPut
                  0x00c4f4                  _IOInit
                  0x00c9fa                  _IOGet
                  0x00ca78                  _IOButtonState
                  0x00cb36                  _PowerLed
                  0x00cb76                  _UARTInit
                  0x00ccf4                  _UARTOn
                  0x00cdca                  _UARTOff
                  0x00ce58                  _UARTRxInt
                  0x00cf56                  _UARTFlush
                  0x00cf82                  _UARTBufferSize
                  0x00d016                  _UARTRead
                  0x00d0d8                  _UARTWrite
                  0x00d170                  _UARTWriteCh
                  0x00d1e6                  _PWMInit
                  0x00d45e                  _PWMOn
                  0x00d59a                  _PWMDuty
                  0x00d610                  _PWMOff
                  0x00d628                  _I2CInit
                  0x00d644                  _I2CStart
                  0x00d686                  _I2CRestart
                  0x00d6c8                  _I2CStop
                  0x00d70a                  _I2CGetDevAck
                  0x00d748                  _I2CTimeout
                  0x00d758                  _I2CAddrSizeSet
                  0x00d77e                  _I2CAddrSizeGet
                  0x00d78a                  _I2CWrite
                  0x00d80c                  _I2CRead
                  0x00d8b2                  _I2CReadReg
                  0x00d916                  _I2CReadMulti
                  0x00d9d0                  _I2CWriteReg
                  0x00da16                  _I2CWriteMulti
                  0x00da78                  _SMTPBeginUsage
                  0x00dade                  _SMTPEndUsage
                  0x00db38                  _SMTPTask
                  0x00e7c4                  _SMTPSendMail
                  0x00e7d4                  _SMTPIsBusy
                  0x00e7ea                  _SMTPIsPutReady
                  0x00e808                  _SMTPPut
                  0x00e8ac                  _SMTPPutArray
                  0x00e8e8                  _SMTPPutString
                  0x00e91e                  _SMTPFlush
                  0x00e92c                  _SMTPPutDone
                  0x00eaa4                  _FTPClientOpen
                  0x00eabc                  _FTPRead
                  0x00ead2                  _FTPWrite
                  0x00eae8                  _FTPClose
                  0x00eafa                  _FTPisConn
                  0x00eb08                  _FTPRxLen
                  0x00eb16                  _FTPClientPasv
                  0x00ecda                  _FTPSendCmd
                  0x00ed80                  _FTPConnect
                  0x00efec                  _FTPFileCheck
                  0x00f082                  _FTPFileSize
                  0x00f12c                  _FTPStore
                  0x00f142                  _FTPAppend
                  0x00f32a                  _FTPStreamOpen
                  0x00f4b0                  _FTPStreamWrite
                  0x00f582                  _FTPStreamRead
                  0x00f6f8                  _FTPStreamClose
                  0x00f718                  _FTPStreamStat
                  0x00f722                  _FTPAnswer
                  0x00f77e                  _FTPRxFlush
                  0x00f83a                  _FTPRxRead
                  0x00f954                  _HashAddData
                  0x00f980                  _MD5Initialize
                  0x00f9bc                  _MD5AddData
                  0x00fcbe                  _MD5Calculate
                  0x00fe42                  _SHA1Initialize
                  0x00fe88                  _SHA1AddData
                  0x01030e                  _SHA1Calculate
                  0x0105a8                  _WFGetPSK
                  0x01064e                  _cWFGetPSK
                  0x0106a2                  _NETCustomSave
                  0x010780                  _NETCustomDelete
                  0x0107ce                  _NETCustomExist
                  0x0107fc                  _NETCustomLoad
                  0x010894                  _NETSetParam
                  0x010a42                  _WFGeneric
                  0x010ad8                  _WFConnect
                  0x010b76                  _WFDisconnect
                  0x010b96                  _WFScan
                  0x010bb2                  _RSSIUpdate
                  0x010bdc                  _cRSSIUpdate
                  0x010c3a                  _RSSIValue
                  0x010c46                  _RSSIStatus
                  0x010c68                  _WFScanList
                  0x010d3c                  _WFStopConnecting
                  0x010dd4                  _WFSetChannel
                  0x010e3c                  _WFSetSecurity
                  0x010e88                  _WFHibernate
                  0x010eb4                  _WFSleep
                  0x010eec                  _WFOn
                  0x010f1e                  _WFPsPollEnable
                  0x010fd4                  _cWFDisconnect
                  0x010ff4                  _cWFScan
                  0x011080                  _cWFScanList
                  0x01114c                  _WFGetStat
                  0x011154                  _cWFStopConnecting
                  0x01118c                  _cWFConnect
                  0x0111a0                  _cWFPsPollDisable
                  0x0111ac                  _cWFPsPollEnable
                  0x0111ba                  _xTaskGenericCreate
                  0x0112b0                  _vTaskDelete
                  0x01131c                  _vTaskDelayUntil
                  0x0113b4                  _vTaskDelay
                  0x011410                  _vTaskPrioritySet
                  0x0114e8                  _vTaskSuspend
                  0x011542                  _xTaskIsTaskSuspended
                  0x011574                  _vTaskResume
                  0x0115d6                  _xTaskResumeFromISR
                  0x011640                  _vTaskStartScheduler
                  0x011674                  _vTaskEndScheduler
                  0x01168a                  _vTaskSuspendAll
                  0x011696                  _xTaskResumeAll
                  0x011758                  _xTaskGetTickCount
                  0x01176c                  _uxTaskGetNumberOfTasks
                  0x011774                  _vTaskIncrementTick
                  0x011810                  _vTaskCleanUpResources
                  0x01193a                  _vTaskSwitchContext
                  0x011994                  _vTaskPlaceOnEventList
                  0x0119ea                  _xTaskRemoveFromEventList
                  0x011a6c                  _vTaskSetTimeOutState
                  0x011a80                  _xTaskCheckForTimeOut
                  0x011aec                  _vTaskMissedYield
                  0x011af6                  tasks.o:_prvIdleTask
                  0x011c78                  _xTaskGetCurrentTaskHandle
                  0x011c84                  _vTaskPriorityInherit
                  0x011cf6                  _vTaskPriorityDisinherit
                  0x011d50                  _DHCPInit
                  0x011da0                  _DHCPDisable
                  0x011dc2                  _DHCPEnable
                  0x011dda                  _DHCPIsEnabled
                  0x011df2                  _DHCPIsBound
                  0x011e00                  _DHCPStateChanged
                  0x011e22                  _DHCPIsServerDetected
                  0x011e32                  _DHCPTempIPAddr
                  0x011e78                  _DHCPTask
                  0x0127e4                  _LFSRSeedRand
                  0x012824                  _LFSRRand
                  0x012892                  _GenerateRandomDWORD
                  0x0129d0                  _StringToIPAddress
                  0x012b58                  _IPAddressToString
                  0x012b9a                  _Base64Decode
                  0x012cd8                  _Base64Encode
                  0x012e34                  _uitoa
                  0x012eb2                  _ultoa
                  0x012f62                  _hexatob
                  0x012fd8                  _btohexa_high
                  0x013000                  _btohexa_low
                  0x013026                  _stricmppgm2ram
                  0x0130be                  _swaps
                  0x0130d8                  _swapl
                  0x013136                  _CalcIPChecksum
                  0x0131aa                  _strupr
                  0x0131e4                  _FormatNetBIOSName
                  0x01322c                  _strnchr
                  0x013272                  _TCPSSLStatus
                  0x01331a                  _cTCPSSLStatus
                  0x013350                  _TCPSSLStart
                  0x0133f8                  _cTCPSSLStart
                  0x013424                  _TCPGenericOpen
                  0x013518                  _cTCPGenericOpen
                  0x013542                  _TCPGenericClose
                  0x0135e2                  _cTCPGenericClose
                  0x0135f2                  _TCPServerDetach
                  0x013692                  _cTCPServerDetach
                  0x0136a2                  _TCPClientOpen
                  0x0136b8                  _TCPServerOpen
                  0x0136cc                  _TCPRead
                  0x013778                  _TCPpRead
                  0x01382a                  _cTCPpRead
                  0x013874                  _cTCPRead
                  0x013896                  _TCPWrite
                  0x013954                  _cTCPWrite
                  0x013974                  _TCPRemote
                  0x013a3a                  _cTCPRemote
                  0x013a56                  _TCPClientClose
                  0x013a62                  _TCPServerClose
                  0x013a6e                  _TCPisConn
                  0x013b1c                  _cTCPisConn
                  0x013b2e                  _TCPRxFlush
                  0x013bce                  _cTCPRxFlush
                  0x013bde                  _TCPRxLen
                  0x013c86                  _cTCPRxLen
                  0x013c98                  _DNSInit
                  0x013cac                  _DNSBeginUsage
                  0x013cd2                  _DNSEndUsage
                  0x013d08                  _DNSResolve
                  0x013d4a                  _DNSIsResolved
                  0x014dc2                  _GetReadPtrRawWindow
                  0x014ee8                  _WFPeriodicGratuitousArp
                  0x014f70                  _RetrieveBinaryKey
                  0x014faa                  _MACProcess
                  0x014fd4                  _WFGetTCBSize
                  0x014fdc                  _MACInit
                  0x014fe6                  _RawInit
                  0x015026                  _MACIsLinked
                  0x015030                  _MACIsTxReady
                  0x01504e                  _RawGetMgmtRxBuffer
                  0x015062                  _MACDiscardRx
                  0x015074                  _MACGetFreeRxSize
                  0x0150ea                  _MACGetHeader
                  0x0151c6                  _MACPutHeader
                  0x015222                  _MACPutGeneralHeader
                  0x015270                  _MACFlush
                  0x015292                  _MACSetReadPtrInRx
                  0x0152a2                  _MACSetWritePtr
                  0x0152b6                  _MACSetReadPtr
                  0x0152ca                  _MACCalcRxChecksum
                  0x0152f2                  _MACMemCopyAsync
                  0x01551a                  _MACIsMemCopyDone
                  0x015522                  _MACGet
                  0x015540                  _MACGetArray
                  0x015584                  _MACPut
                  0x0155a4                  _MACPutArray
                  0x0155c4                  _MACPowerDown
                  0x0155ca                  _MACPowerUp
                  0x0155d0                  _CalcIPBufferChecksum
                  0x0155f2                  _UDPGenericOpen
                  0x0156ba                  _cUDPGenericOpen
                  0x01575a                  _UDPLocalPort
                  0x015772                  _UDPServerOpen
                  0x015786                  _UDPClientOpen
                  0x0157ae                  _UDPBroadcastOpen
                  0x0157c2                  _UDPGenericClose
                  0x015852                  _cUDPGenericClose
                  0x015886                  _UDPServerClose
                  0x015894                  _UDPClientClose
                  0x0158a2                  _UDPRxLen
                  0x0158b6                  _UDPRxFlush
                  0x015906                  _UDPRxOver
                  0x015938                  _UDPRead
                  0x015a66                  _UDPpRead
                  0x015b56                  _UDPWrite
                  0x015c02                  _cUDPWrite
                  0x015c3e                  _UDPMultiOn
                  0x015ce8                  _cUDPMultiOn
                  0x015d90                  _UDPMultiOpen
                  0x015df2                  _UDPInit
                  0x015e14                  _UDPOpenEx
                  0x015f34                  _UDPTask
                  0x01611a                  _UDPIsOpened
                  0x01613c                  _UDPClose
                  0x016174                  _UDPSetTxBuffer
                  0x016188                  _UDPSetRxBuffer
                  0x01619c                  _UDPIsPutReady
                  0x0161d4                  _UDPPut
                  0x016208                  _UDPPutArray
                  0x016240                  _UDPPutString
                  0x016256                  _UDPFlush
                  0x0162b6                  _UDPIsGetReady
                  0x0162f2                  _UDPGet
                  0x01632a                  _UDPGetArray
                  0x016376                  _UDPDiscard
                  0x01639e                  _UDPProcess
                  0x016576                  _SPIFlashInit
                  0x016694                  _SPIFlashReadArray
                  0x016786                  _SPIFlashBeginWrite
                  0x016794                  _SPIFlashWrite
                  0x0168b2                  _SPIFlashWriteArray
                  0x016af4                  _SPIFlashEraseSector
                  0x016c16                  _HTTP_Read
                  0x016d44                  _HTTP_Get
                  0x016de8                  _HTTP_GetSimple
                  0x016e14                  _HTTP_Post
                  0x016ed8                  _HTTP_PostSimple
                  0x016f0e                  _HTTP_Put
                  0x016fc6                  _HTTP_URLEncode
                  0x0170d8                  _HTTP_URLEncodeLen
                  0x017140                  _HTTP_URLDecode
                  0x01721e                  _HTTP_URLDecodeLen
                  0x017260                  _RSAInit
                  0x01727e                  _RSABeginUsage
                  0x0172ba                  _RSAEndUsage
                  0x0172c4                  _RSASetData
                  0x017372                  _RSASetResult
                  0x01738c                  _RSASetE
                  0x0173f4                  _RSASetN
                  0x017416                  _RSAStep
                  0x01789e                  _CmdCheck
                  0x017bde                  _main
                  0x017c32                  _TCPIPTask
                  0x017eda                  _WiFiTask
                  0x017f5e                  _WFProcess
                  0x017f90                  _SignalDHCPSuccessful
                  0x017f9e                  _SetDhcpProgressState
                  0x017fb6                  _SignalWiFiConnectionChanged
                  0x018064                  _Read8BitWFRegister
                  0x01808e                  _Write8BitWFRegister
                  0x0180b6                  _Read16BitWFRegister
                  0x0180ea                  _Write16BitWFRegister
                  0x01811e                  _WriteWFArray
                  0x01814e                  _ReadWFArray
                  0x018292                  _WFEintHandler
                  0x01833c                  _ReenablePowerSaveMode
                  0x018346                  _WFHardwareInit
                  0x01850c                  _WF_OutputConnectionContext
                  0x01859e                  _WF_OutputConnectionDebugMsg
                  0x0187e6                  _WF_OutputConnectionInfo
                  0x018a74                  _WF_AssertionFailed
                  0x018ae4                  _WF_DisplayModuleAssertInfo
                  0x018b34                  _xQueueCreate
                  0x018bd8                  _xQueueCreateMutex
                  0x018c3c                  _xQueueGenericSend
                  0x018d20                  _xQueueGenericSendFromISR
                  0x018d80                  _xQueueGenericReceive
                  0x018ec2                  _xQueueReceiveFromISR
                  0x018f24                  _uxQueueMessagesWaiting
                  0x018f3c                  _uxQueueMessagesWaitingFromISR
                  0x018f4c                  _vQueueDelete
                  0x0190e6                  _xQueueIsQueueEmptyFromISR
                  0x019126                  _xQueueIsQueueFullFromISR
                  0x019144                  _findJsonInResponseStr
                  0x0193d2                  _print_number_value
                  0x01952c                  _parseProperty
                  0x019594                  _serializeProperty
                  0x0195da                  _serializeAction
                  0x019612                  _WFEnableMRF24WB0MMode
                  0x019624                  _WFEnableDebugPrint
                  0x019634                  _WF_SetLinkDownThreshold
                  0x019644                  _WF_SetTxMode
                  0x019654                  _WF_GetTxMode
                  0x019664                  _WFEnableBroadcastProbeResponse
                  0x019676                  _WF_GetDeviceInfo
                  0x0196cc                  _WF_SetMacAddress
                  0x0196dc                  _WF_GetMacAddress
                  0x0196ec                  _WF_MulticastSetConfig
                  0x019798                  _WF_MulticastGetConfig
                  0x0197fe                  _WF_SetTxDataConfirm
                  0x01980e                  _WF_GetTxDataConfirm
                  0x01981e                  _WF_SetRegionalDomain
                  0x01982e                  _WF_GetRegionalDomain
                  0x01983e                  _WF_SetRtsThreshold
                  0x019868                  _WF_YieldPassphrase2Host
                  0x01987a                  _WF_SetPSK
                  0x01988a                  _WF_GetRtsThreshold
                  0x0198a8                  _WF_SetMultiCastFilter
                  0x01991e                  _WF_EnableSWMultiCastFilter
                  0x019930                  _WF_GetMacStats
                  0x019a64                  _SendSetParamMsg
                  0x019a94                  _SendGetParamMsg
                  0x019ac8                  _RawCalculateChecksum
                  0x019ae4                  _AllocateMgmtTxBuffer
                  0x019b36                  _DeallocateMgmtRxBuffer
                  0x019b46                  _AllocateDataTxBuffer
                  0x019ba2                  _SendRAWDataFrame
                  0x019bcc                  _SendRAWManagementFrame
                  0x019bde                  _DeallocateDataRxBuffer
                  0x019c08                  _RawMountRxBuffer
                  0x019c38                  _RawToRawCopy
                  0x019c66                  _PushRawWindow
                  0x019c78                  _PopRawWindow
                  0x019c90                  _ScratchMount
                  0x019cb4                  _ScratchUnmount
                  0x019cc6                  _RawRead
                  0x019ce2                  _RawWrite
                  0x019d80                  _RawSetIndex
                  0x019e0c                  _RawGetIndex
                  0x019e28                  _RawGetByte
                  0x019e64                  _RawSetByte
                  0x019f62                  _WF_CASetElements
                  0x01a01a                  _WF_CASetElementsN
                  0x01a04e                  _WF_CAGetElements
                  0x01a098                  _WF_CASetScanType
                  0x01a0a8                  _WF_CAGetScanType
                  0x01a0ba                  _WF_CASetMinChannelTime
                  0x01a0d4                  _WF_CAGetMinChannelTime
                  0x01a0f4                  _WF_CASetMaxChannelTime
                  0x01a10e                  _WF_CAGetMaxChannelTime
                  0x01a12e                  _WF_CASetProbeDelay
                  0x01a148                  _WF_CAGetProbeDelay
                  0x01a168                  _WF_CASetScanCount
                  0x01a178                  _WF_CAGetScanCount
                  0x01a18a                  _WF_CASetRssi
                  0x01a19a                  _WF_CAGetRssi
                  0x01a1ac                  _WF_CASetListRetryCount
                  0x01a1bc                  _WF_CAGetListRetryCount
                  0x01a1ce                  _WF_CASetEventNotificationAction
                  0x01a1da                  _WF_CAGetEventNotificationAction
                  0x01a1ea                  _WF_CASetBeaconTimeoutAction
                  0x01a1fa                  _WF_CAGetBeaconTimeoutAction
                  0x01a20c                  _WF_CASetDeauthAction
                  0x01a21c                  _WF_CAGetDeauthAction
                  0x01a22e                  _WF_CASetChannelList
                  0x01a240                  _WF_CAGetChannelList
                  0x01a27c                  _WF_CASetListenInterval
                  0x01a296                  _WF_CASetDtimInterval
                  0x01a2b0                  _WF_CAGetListenInterval
                  0x01a2d0                  _WF_CASetBeaconPeriod
                  0x01a2ea                  _WF_CAGetBeaconPeriod
                  0x01a30a                  _WF_CAGetDtimInterval
                  0x01a32a                  _WF_CASetBeaconTimeout
                  0x01a33a                  _WF_CAGetBeaconTimeout
                  0x01a358                  _GetEventNotificationMask
                  0x01a3da                  _WF_DisableModuleConnectionManager
                  0x01a3ec                  _ARPSendPkt
                  0x01a4b0                  _ARPInit
                  0x01a50a                  _ARPProcess
                  0x01a622                  _ARPResolve
                  0x01a706                  _ARPIsResolved
                  0x01a828                  _SwapARPPacket
                  0x01a85a                  _GenericSMTP
                  0x01a902                  _SMTPStart
                  0x01a90c                  _cSMTPStart
                  0x01a91a                  _SMTPSetServer
                  0x01a9ba                  _cSMTPSetServer
                  0x01aa06                  _SMTPSetMsg
                  0x01aaa6                  _cSMTPSetMsg
                  0x01ab02                  _SMTPSend
                  0x01ab0c                  _cSMTPSend
                  0x01ab1c                  _SMTPBusy
                  0x01ab26                  _cSMTPBusy
                  0x01ab34                  _SMTPStop
                  0x01ab3e                  _cSMTPStop
                  0x01ab58                  _SMTPReport
                  0x01abfe                  _cSMTPReport
                  0x01ac0c                  _WF_CPCreate
                  0x01ac3a                  _WF_CPDelete
                  0x01ac5e                  _WF_CPGetIds
                  0x01ac86                  _WF_CPSetElements
                  0x01acac                  _WF_CPGetElements
                  0x01acc2                  _WF_CPSetSsidType
                  0x01acd6                  _WF_CPGetSsidType
                  0x01acec                  _WF_CPSetSsid
                  0x01ad12                  _WF_CPGetSsid
                  0x01ad52                  _WF_CPSetBssid
                  0x01ad66                  _WF_CPGetBssid
                  0x01ad7c                  _WF_CPSetNetworkType
                  0x01ad90                  _WF_CPGetNetworkType
                  0x01ada6                  _WF_CPSetWepKeyType
                  0x01adba                  _WF_CPGetWepKeyType
                  0x01add0                  _WF_CPGetWPSCredentials
                  0x01ade6                  _WF_CPUpdatePMK
                  0x01adfa                  _WF_CPSetSecurity
                  0x01ae72                  _WF_CPGetSecurity
                  0x01aedc                  _WF_CPSetDefaultWepKeyIndex
                  0x01aef0                  _WF_CPGetDefaultWepKeyIndex
                  0x01af06                  _WF_CPSetAdHocBehavior
                  0x01af1a                  _WF_CPGetAdHocBehavior
                  0x01afae                  _StackInit
                  0x01b018                  _StackTask
                  0x01b2fa                  _StackApplications
                  0x01b308                  _RenewDhcp
                  0x01b316                  _BigInt
                  0x01b346                  _BigIntZero
                  0x01b36c                  _BigIntMod
                  0x01b442                  _BigIntCompare
                  0x01b4d6                  _BigIntMagnitudeDifference
                  0x01b4f0                  _BigIntMagnitude
                  0x01b552                  _BigIntMultiply
                  0x01b58a                  _BigIntSquare
                  0x01b5b4                  _BigIntCopy
                  0x01b5e0                  _BigIntSwapEndianness
                  0x01b618                  __RTCCInterrupt
                  0x01b662                  _RTCCAlarmStat
                  0x01b67e                  _RTCCSet
                  0x01b706                  _RTCCGet
                  0x01b772                  _RTCCAlarmConf
                  0x01b85e                  _RTCCAlarmSet
                  0x01b988                  _createHeader
                  0x01b9b4                  _createHeader_BL
                  0x01b9e0                  _createHeader_ContentType
                  0x01ba24                  _createGetPropertyURLPath
                  0x01ba6c                  _createUpdatePropertyURLPath
                  0x01bab0                  _createPostActionURLPath
                  0x01badc                  _evt_GetPropertyValue
                  0x01bb3e                  _evt_UpdatePropertyValue
                  0x01bba6                  _evt_PostAction
                  0x01bc0c                  _DisplayIPValue
                  0x01bc46                  _InitAppConfig
                  0x01be94                  _WFProcessMgmtIndicateMsg
                  0x01c0e6                  _SNTPInit
                  0x01c0f6                  _SNTPClient
                  0x01c2be                  _SNTPGetUTCSeconds
                  0x01c316                  _IPGetHeader
                  0x01c428                  _IPPutHeader
                  0x01c4d0                  _IPSetRxBuffer
                  0x01c516                  __U1RXInterrupt
                  0x01c536                  __U2RXInterrupt
                  0x01c556                  __U3RXInterrupt
                  0x01c576                  __U4RXInterrupt
                  0x01c596                  __DefaultInterrupt
                  0x01c5c0                  __OscillatorFail
                  0x01c5ea                  __AddressError
                  0x01c614                  __StackError
                  0x01c63e                  __MathError
                  0x01c668                  __INT2Interrupt
                  0x01c690                  __INT3Interrupt
                  0x01c6b8                  __INT4Interrupt
                  0x01c6e0                  _SendMgmtMsg
                  0x01c766                  _SignalMgmtConfirmReceivedEvent
                  0x01c770                  _WaitForMgmtResponse
                  0x01c810                  _WaitForMgmtResponseAndReadData
                  0x01c872                  _WFSetFuncState
                  0x01c89e                  _nothigToDo
                  0x01c8a4                  _INTDetach
                  0x01c8d4                  _INTAttach
                  0x01c906                  _INTInit
                  0x01c99e                  _INTPriority
                  0x01c9fe                  _INTEnable
                  0x01ca2e                  _INTDisable
                  0x01ca58                  _pvPortMalloc
                  0x01cb64                  _vPortFree
                  0x01cbc0                  _xPortGetFreeHeapSize
                  0x01cbc8                  _vPortInitialiseBlocks
                  0x01cbce                  _WFConfigureLowPowerMode
                  0x01cc0e                  _WF_PsPollEnable
                  0x01cc50                  _isSleepNeeded
                  0x01cc58                  _ClearSleepNeeded
                  0x01cc62                  _SetSleepNeeded
                  0x01cc6c                  _SetAppPowerSaveMode
                  0x01cc78                  _GetAppPowerSaveMode
                  0x01cc80                  _WF_PsPollDisable
                  0x01cca2                  _WF_GetPowerSaveState
                  0x01ccb2                  _WFisPsPollEnabled
                  0x01ccd4                  _WFIsPsPollActive
                  0x01ccdc                  _EnsureWFisAwake
                  0x01ccfe                  _WF_HibernateEnable
                  0x01cd2c                  _SetPowerSaveState
                  0x01cd38                  _pxPortInitialiseStack
                  0x01cdc2                  _xPortStartScheduler
                  0x01cdf0                  _vPortEndScheduler
                  0x01ce24                  _vPortEnterCritical
                  0x01ce38                  _vPortExitCritical
                  0x01ce52                  __T5Interrupt
                  0x01ce80                  _WF_CMConnect
                  0x01ced0                  _WF_CMDisconnect
                  0x01cf08                  _WF_CMGetConnectionState
                  0x01cf5e                  _WFisConnected
                  0x01cf66                  _SetLogicalConnectionState
                  0x01cf72                  _WF_CMCheckConnectionState
                  0x01cfae                  _WF_CMGetConnectContext
                  0x01cfc0                  _TickInit
                  0x01d044                  _TickGet
                  0x01d050                  _TickGetDiv256
                  0x01d080                  _TickGetDiv64K
                  0x01d0b0                  _TickConvertToMilliseconds
                  0x01d0d6                  __T1Interrupt
                  0x01d0ee                  _vListInitialise
                  0x01d120                  _vListInitialiseItem
                  0x01d12e                  _vListInsertEnd
                  0x01d172                  _vListInsert
                  0x01d1d2                  _vListRemove
                  0x01d216                  _test_evt_GetPropertyValue
                  0x01d286                  _test_evt_UpdatePropertyValue
                  0x01d2c6                  _test_evt_PostAction
                  0x01d2f6                  _connectToWifi
                  0x01d31a                  _FlyportTask
                  0x01d33e                  _ARCFOURInitialize
                  0x01d3d0                  _ARCFOURCrypt
                  0x01d460                  _DelayMs
                  0x01d48c                  _Delay10us
                  0x01d570                  _WF_ProcessEvent
                  0x01d67a                  _ARPResolveMAC
                  0x01d736                  _cARPResolveMAC
                  0x01d782                  _HWInit
                  0x01d888                  __addBI
                  0x01d8a8                  __subBI
                  0x01d8c8                  __zeroBI
                  0x01d8d4                  __msbBI
                  0x01d8e4                  __mulBI
                  0x01d91a                  __sqrBI
                  0x01d924                  __masBI
                  0x01d946                  __copyBI
                  0x01d964                  _WF_SpiInit
                  0x01d984                  _WF_SpiEnableChipSelect
                  0x01d98c                  _WF_SpiDisableChipSelect
                  0x01d996                  _WFSpiTxRx
                  0x01da38                  _WF_Connect
                  0x01dafe                  _initializeTime
                  0x01db98                  _getTimeStamp
                  0x01dbe4                  _WF_Scan
                  0x01dc22                  _WF_ScanGetResult
                  0x01dc72                  _RandomInit
                  0x01dcb8                  _RandomGet
                  0x01dcf0                  _RandomAdd
                  0x01dd18                  _WF_EintIsDisabled
                  0x01dd2a                  _WF_EintIsPending
                  0x01dd4c                  __INT1Interrupt
                  0x01dd86                  _WF_EintEnable
                  0x01dd98                  _WF_EintDisable
                  0x01dda0                  _WF_EintInit
                  0x01ddb2                  _WF_TxPowerSetMax
                  0x01ddf4                  _WF_TxPowerGetMax
                  0x01de20                  _WF_TxPowerGetFactoryMax
                  0x01de3a                  _OnConnectionSuccessful
                  0x01de52                  _OnConnectionFailed
                  0x01de5c                  _OnConnectionTempLost
                  0x01de66                  _OnConnectionReestablished
                  0x01de76                  _OnConnectionPermLost
                  0x01de88                  _OnScanResult
                  0x01deb8                  _WF_Init
                  0x01df20                  _vPortYield

External Symbols in Program Memory (by name):

                  0x00c380                  _ADCAttach
                  0x00c3b0                  _ADCDetach
                  0x00c320                  _ADCInit
                  0x00c35c                  _ADCVal
                  0x01d3d0                  _ARCFOURCrypt
                  0x01d33e                  _ARCFOURInitialize
                  0x01a4b0                  _ARPInit
                  0x01a706                  _ARPIsResolved
                  0x01a50a                  _ARPProcess
                  0x01a622                  _ARPResolve
                  0x01d67a                  _ARPResolveMAC
                  0x01a3ec                  _ARPSendPkt
                  0x019b46                  _AllocateDataTxBuffer
                  0x019ae4                  _AllocateMgmtTxBuffer
                  0x012b9a                  _Base64Decode
                  0x012cd8                  _Base64Encode
                  0x01b316                  _BigInt
                  0x01b442                  _BigIntCompare
                  0x01b5b4                  _BigIntCopy
                  0x01b4f0                  _BigIntMagnitude
                  0x01b4d6                  _BigIntMagnitudeDifference
                  0x01b36c                  _BigIntMod
                  0x01b552                  _BigIntMultiply
                  0x01b58a                  _BigIntSquare
                  0x01b5e0                  _BigIntSwapEndianness
                  0x01b346                  _BigIntZero
                  0x0155d0                  _CalcIPBufferChecksum
                  0x013136                  _CalcIPChecksum
                  0x01cc58                  _ClearSleepNeeded
                  0x01789e                  _CmdCheck
                  0x011da0                  _DHCPDisable
                  0x011dc2                  _DHCPEnable
                  0x011d50                  _DHCPInit
                  0x011df2                  _DHCPIsBound
                  0x011dda                  _DHCPIsEnabled
                  0x011e22                  _DHCPIsServerDetected
                  0x011e00                  _DHCPStateChanged
                  0x011e78                  _DHCPTask
                  0x011e32                  _DHCPTempIPAddr
                  0x013cac                  _DNSBeginUsage
                  0x013cd2                  _DNSEndUsage
                  0x013c98                  _DNSInit
                  0x013d4a                  _DNSIsResolved
                  0x013d08                  _DNSResolve
                  0x019bde                  _DeallocateDataRxBuffer
                  0x019b36                  _DeallocateMgmtRxBuffer
                  0x01d48c                  _Delay10us
                  0x01d460                  _DelayMs
                  0x01bc0c                  _DisplayIPValue
                  0x01ccdc                  _EnsureWFisAwake
                  0x00f722                  _FTPAnswer
                  0x00f142                  _FTPAppend
                  0x00eaa4                  _FTPClientOpen
                  0x00eb16                  _FTPClientPasv
                  0x00eae8                  _FTPClose
                  0x00ed80                  _FTPConnect
                  0x00efec                  _FTPFileCheck
                  0x00f082                  _FTPFileSize
                  0x00eabc                  _FTPRead
                  0x00f77e                  _FTPRxFlush
                  0x00eb08                  _FTPRxLen
                  0x00f83a                  _FTPRxRead
                  0x00ecda                  _FTPSendCmd
                  0x00f12c                  _FTPStore
                  0x00f6f8                  _FTPStreamClose
                  0x00f32a                  _FTPStreamOpen
                  0x00f582                  _FTPStreamRead
                  0x00f718                  _FTPStreamStat
                  0x00f4b0                  _FTPStreamWrite
                  0x00ead2                  _FTPWrite
                  0x00eafa                  _FTPisConn
                  0x01d31a                  _FlyportTask
                  0x0131e4                  _FormatNetBIOSName
                  0x012892                  _GenerateRandomDWORD
                  0x01a85a                  _GenericSMTP
                  0x01cc78                  _GetAppPowerSaveMode
                  0x01a358                  _GetEventNotificationMask
                  0x014dc2                  _GetReadPtrRawWindow
                  0x016d44                  _HTTP_Get
                  0x016de8                  _HTTP_GetSimple
                  0x016e14                  _HTTP_Post
                  0x016ed8                  _HTTP_PostSimple
                  0x016f0e                  _HTTP_Put
                  0x016c16                  _HTTP_Read
                  0x017140                  _HTTP_URLDecode
                  0x01721e                  _HTTP_URLDecodeLen
                  0x016fc6                  _HTTP_URLEncode
                  0x0170d8                  _HTTP_URLEncodeLen
                  0x01d782                  _HWInit
                  0x00f954                  _HashAddData
                  0x00d77e                  _I2CAddrSizeGet
                  0x00d758                  _I2CAddrSizeSet
                  0x00d70a                  _I2CGetDevAck
                  0x00d628                  _I2CInit
                  0x00d80c                  _I2CRead
                  0x00d916                  _I2CReadMulti
                  0x00d8b2                  _I2CReadReg
                  0x00d686                  _I2CRestart
                  0x00d644                  _I2CStart
                  0x00d6c8                  _I2CStop
                  0x00d748                  _I2CTimeout
                  0x00d78a                  _I2CWrite
                  0x00da16                  _I2CWriteMulti
                  0x00d9d0                  _I2CWriteReg
                  0x01c8d4                  _INTAttach
                  0x01c8a4                  _INTDetach
                  0x01ca2e                  _INTDisable
                  0x01c9fe                  _INTEnable
                  0x01c906                  _INTInit
                  0x01c99e                  _INTPriority
                  0x00ca78                  _IOButtonState
                  0x00c9fa                  _IOGet
                  0x00c4f4                  _IOInit
                  0x00c3d8                  _IOPut
                  0x012b58                  _IPAddressToString
                  0x01c316                  _IPGetHeader
                  0x01c428                  _IPPutHeader
                  0x01c4d0                  _IPSetRxBuffer
                  0x01bc46                  _InitAppConfig
                  0x012824                  _LFSRRand
                  0x0127e4                  _LFSRSeedRand
                  0x0152ca                  _MACCalcRxChecksum
                  0x015062                  _MACDiscardRx
                  0x015270                  _MACFlush
                  0x015522                  _MACGet
                  0x015540                  _MACGetArray
                  0x015074                  _MACGetFreeRxSize
                  0x0150ea                  _MACGetHeader
                  0x014fdc                  _MACInit
                  0x015026                  _MACIsLinked
                  0x01551a                  _MACIsMemCopyDone
                  0x015030                  _MACIsTxReady
                  0x0152f2                  _MACMemCopyAsync
                  0x0155c4                  _MACPowerDown
                  0x0155ca                  _MACPowerUp
                  0x014faa                  _MACProcess
                  0x015584                  _MACPut
                  0x0155a4                  _MACPutArray
                  0x015222                  _MACPutGeneralHeader
                  0x0151c6                  _MACPutHeader
                  0x0152b6                  _MACSetReadPtr
                  0x015292                  _MACSetReadPtrInRx
                  0x0152a2                  _MACSetWritePtr
                  0x00f9bc                  _MD5AddData
                  0x00fcbe                  _MD5Calculate
                  0x00f980                  _MD5Initialize
                  0x010780                  _NETCustomDelete
                  0x0107ce                  _NETCustomExist
                  0x0107fc                  _NETCustomLoad
                  0x0106a2                  _NETCustomSave
                  0x010894                  _NETSetParam
                  0x01de52                  _OnConnectionFailed
                  0x01de76                  _OnConnectionPermLost
                  0x01de66                  _OnConnectionReestablished
                  0x01de3a                  _OnConnectionSuccessful
                  0x01de5c                  _OnConnectionTempLost
                  0x01de88                  _OnScanResult
                  0x00d59a                  _PWMDuty
                  0x00d1e6                  _PWMInit
                  0x00d610                  _PWMOff
                  0x00d45e                  _PWMOn
                  0x019c78                  _PopRawWindow
                  0x00cb36                  _PowerLed
                  0x019c66                  _PushRawWindow
                  0x01727e                  _RSABeginUsage
                  0x0172ba                  _RSAEndUsage
                  0x017260                  _RSAInit
                  0x0172c4                  _RSASetData
                  0x01738c                  _RSASetE
                  0x0173f4                  _RSASetN
                  0x017372                  _RSASetResult
                  0x017416                  _RSAStep
                  0x010c46                  _RSSIStatus
                  0x010bb2                  _RSSIUpdate
                  0x010c3a                  _RSSIValue
                  0x01b772                  _RTCCAlarmConf
                  0x01b85e                  _RTCCAlarmSet
                  0x01b662                  _RTCCAlarmStat
                  0x01b706                  _RTCCGet
                  0x01b67e                  _RTCCSet
                  0x01dcf0                  _RandomAdd
                  0x01dcb8                  _RandomGet
                  0x01dc72                  _RandomInit
                  0x019ac8                  _RawCalculateChecksum
                  0x019e28                  _RawGetByte
                  0x019e0c                  _RawGetIndex
                  0x01504e                  _RawGetMgmtRxBuffer
                  0x014fe6                  _RawInit
                  0x019c08                  _RawMountRxBuffer
                  0x019cc6                  _RawRead
                  0x019e64                  _RawSetByte
                  0x019d80                  _RawSetIndex
                  0x019c38                  _RawToRawCopy
                  0x019ce2                  _RawWrite
                  0x0180b6                  _Read16BitWFRegister
                  0x018064                  _Read8BitWFRegister
                  0x01814e                  _ReadWFArray
                  0x01833c                  _ReenablePowerSaveMode
                  0x01b308                  _RenewDhcp
                  0x014f70                  _RetrieveBinaryKey
                  0x00fe88                  _SHA1AddData
                  0x01030e                  _SHA1Calculate
                  0x00fe42                  _SHA1Initialize
                  0x00da78                  _SMTPBeginUsage
                  0x01ab1c                  _SMTPBusy
                  0x00dade                  _SMTPEndUsage
                  0x00e91e                  _SMTPFlush
                  0x00e7d4                  _SMTPIsBusy
                  0x00e7ea                  _SMTPIsPutReady
                  0x00e808                  _SMTPPut
                  0x00e8ac                  _SMTPPutArray
                  0x00e92c                  _SMTPPutDone
                  0x00e8e8                  _SMTPPutString
                  0x01ab58                  _SMTPReport
                  0x01ab02                  _SMTPSend
                  0x00e7c4                  _SMTPSendMail
                  0x01aa06                  _SMTPSetMsg
                  0x01a91a                  _SMTPSetServer
                  0x01a902                  _SMTPStart
                  0x01ab34                  _SMTPStop
                  0x00db38                  _SMTPTask
                  0x01c0f6                  _SNTPClient
                  0x01c2be                  _SNTPGetUTCSeconds
                  0x01c0e6                  _SNTPInit
                  0x016786                  _SPIFlashBeginWrite
                  0x016af4                  _SPIFlashEraseSector
                  0x016576                  _SPIFlashInit
                  0x016694                  _SPIFlashReadArray
                  0x016794                  _SPIFlashWrite
                  0x0168b2                  _SPIFlashWriteArray
                  0x009286                  _SSLInit
                  0x00aa70                  _SSLMACAdd
                  0x00a9e6                  _SSLMACBegin
                  0x00aa84                  _SSLMACCalc
                  0x0092ea                  _SSLPeriodic
                  0x009720                  _SSLRxHandshake
                  0x009462                  _SSLRxRecord
                  0x009338                  _SSLStartSession
                  0x00942c                  _SSLTerminate
                  0x009684                  _SSLTxMessage
                  0x0095ec                  _SSLTxRecord
                  0x019c90                  _ScratchMount
                  0x019cb4                  _ScratchUnmount
                  0x019a94                  _SendGetParamMsg
                  0x01c6e0                  _SendMgmtMsg
                  0x019ba2                  _SendRAWDataFrame
                  0x019bcc                  _SendRAWManagementFrame
                  0x019a64                  _SendSetParamMsg
                  0x01cc6c                  _SetAppPowerSaveMode
                  0x017f9e                  _SetDhcpProgressState
                  0x01cf66                  _SetLogicalConnectionState
                  0x01cd2c                  _SetPowerSaveState
                  0x01cc62                  _SetSleepNeeded
                  0x017f90                  _SignalDHCPSuccessful
                  0x01c766                  _SignalMgmtConfirmReceivedEvent
                  0x017fb6                  _SignalWiFiConnectionChanged
                  0x01b2fa                  _StackApplications
                  0x01afae                  _StackInit
                  0x01b018                  _StackTask
                  0x0129d0                  _StringToIPAddress
                  0x01a828                  _SwapARPPacket
                  0x0088c8                  _TCPAdjustFIFOSize
                  0x013a56                  _TCPClientClose
                  0x0136a2                  _TCPClientOpen
                  0x006948                  _TCPClose
                  0x006c96                  _TCPDiscard
                  0x006884                  _TCPDisconnect
                  0x006f2e                  _TCPFindArrayEx
                  0x0071b8                  _TCPFindEx
                  0x006990                  _TCPFlush
                  0x013542                  _TCPGenericClose
                  0x013424                  _TCPGenericOpen
                  0x006cf2                  _TCPGet
                  0x006d64                  _TCPGetArray
                  0x006964                  _TCPGetRemoteInfo
                  0x006e28                  _TCPGetRxFIFOFree
                  0x006c68                  _TCPGetTxFIFOFull
                  0x017c32                  _TCPIPTask
                  0x0065f8                  _TCPInit
                  0x00685c                  _TCPIsConnected
                  0x006cb4                  _TCPIsGetReady
                  0x0069b2                  _TCPIsPutReady
                  0x008ca8                  _TCPIsSSL
                  0x0066d4                  _TCPOpen
                  0x006f16                  _TCPPeek
                  0x006e6c                  _TCPPeekArray
                  0x0076aa                  _TCPProcess
                  0x006a46                  _TCPPut
                  0x006b12                  _TCPPutArray
                  0x006c4a                  _TCPPutString
                  0x0136cc                  _TCPRead
                  0x013974                  _TCPRemote
                  0x008c4a                  _TCPRequestSSLMessage
                  0x013b2e                  _TCPRxFlush
                  0x013bde                  _TCPRxLen
                  0x008cec                  _TCPSSLDecryptMAC
                  0x008f88                  _TCPSSLGetPendingTxSize
                  0x008fc8                  _TCPSSLHandleIncoming
                  0x008cd4                  _TCPSSLHandshakeComplete
                  0x008dfa                  _TCPSSLInPlaceMACEncrypt
                  0x008c84                  _TCPSSLIsHandshaking
                  0x008f08                  _TCPSSLPutRecordHeader
                  0x013350                  _TCPSSLStart
                  0x013272                  _TCPSSLStatus
                  0x013a62                  _TCPServerClose
                  0x0135f2                  _TCPServerDetach
                  0x0136b8                  _TCPServerOpen
                  0x0062ec                  _TCPSocketInitializer
                  0x008b46                  _TCPStartSSLClient
                  0x008bc6                  _TCPStartSSLClientEx
                  0x0071d6                  _TCPTick
                  0x006828                  _TCPWasReset
                  0x013896                  _TCPWrite
                  0x013a6e                  _TCPisConn
                  0x013778                  _TCPpRead
                  0x01d0b0                  _TickConvertToMilliseconds
                  0x01d044                  _TickGet
                  0x01d050                  _TickGetDiv256
                  0x01d080                  _TickGetDiv64K
                  0x01cfc0                  _TickInit
                  0x00cf82                  _UARTBufferSize
                  0x00cf56                  _UARTFlush
                  0x00cb76                  _UARTInit
                  0x00cdca                  _UARTOff
                  0x00ccf4                  _UARTOn
                  0x00d016                  _UARTRead
                  0x00ce58                  _UARTRxInt
                  0x00d0d8                  _UARTWrite
                  0x00d170                  _UARTWriteCh
                  0x0157ae                  _UDPBroadcastOpen
                  0x015894                  _UDPClientClose
                  0x015786                  _UDPClientOpen
                  0x01613c                  _UDPClose
                  0x016376                  _UDPDiscard
                  0x016256                  _UDPFlush
                  0x0157c2                  _UDPGenericClose
                  0x0155f2                  _UDPGenericOpen
                  0x0162f2                  _UDPGet
                  0x01632a                  _UDPGetArray
                  0x015df2                  _UDPInit
                  0x0162b6                  _UDPIsGetReady
                  0x01611a                  _UDPIsOpened
                  0x01619c                  _UDPIsPutReady
                  0x01575a                  _UDPLocalPort
                  0x015c3e                  _UDPMultiOn
                  0x015d90                  _UDPMultiOpen
                  0x015e14                  _UDPOpenEx
                  0x01639e                  _UDPProcess
                  0x0161d4                  _UDPPut
                  0x016208                  _UDPPutArray
                  0x016240                  _UDPPutString
                  0x015938                  _UDPRead
                  0x0158b6                  _UDPRxFlush
                  0x0158a2                  _UDPRxLen
                  0x015906                  _UDPRxOver
                  0x015886                  _UDPServerClose
                  0x015772                  _UDPServerOpen
                  0x016188                  _UDPSetRxBuffer
                  0x016174                  _UDPSetTxBuffer
                  0x015f34                  _UDPTask
                  0x015b56                  _UDPWrite
                  0x015a66                  _UDPpRead
                  0x01cbce                  _WFConfigureLowPowerMode
                  0x010ad8                  _WFConnect
                  0x010b76                  _WFDisconnect
                  0x018292                  _WFEintHandler
                  0x019664                  _WFEnableBroadcastProbeResponse
                  0x019624                  _WFEnableDebugPrint
                  0x019612                  _WFEnableMRF24WB0MMode
                  0x010a42                  _WFGeneric
                  0x0105a8                  _WFGetPSK
                  0x01114c                  _WFGetStat
                  0x014fd4                  _WFGetTCBSize
                  0x018346                  _WFHardwareInit
                  0x010e88                  _WFHibernate
                  0x01ccd4                  _WFIsPsPollActive
                  0x010eec                  _WFOn
                  0x014ee8                  _WFPeriodicGratuitousArp
                  0x017f5e                  _WFProcess
                  0x01be94                  _WFProcessMgmtIndicateMsg
                  0x010f1e                  _WFPsPollEnable
                  0x010b96                  _WFScan
                  0x010c68                  _WFScanList
                  0x010dd4                  _WFSetChannel
                  0x01c872                  _WFSetFuncState
                  0x010e3c                  _WFSetSecurity
                  0x010eb4                  _WFSleep
                  0x01d996                  _WFSpiTxRx
                  0x010d3c                  _WFStopConnecting
                  0x018a74                  _WF_AssertionFailed
                  0x01a2ea                  _WF_CAGetBeaconPeriod
                  0x01a33a                  _WF_CAGetBeaconTimeout
                  0x01a1fa                  _WF_CAGetBeaconTimeoutAction
                  0x01a240                  _WF_CAGetChannelList
                  0x01a21c                  _WF_CAGetDeauthAction
                  0x01a30a                  _WF_CAGetDtimInterval
                  0x01a04e                  _WF_CAGetElements
                  0x01a1da                  _WF_CAGetEventNotificationAction
                  0x01a1bc                  _WF_CAGetListRetryCount
                  0x01a2b0                  _WF_CAGetListenInterval
                  0x01a10e                  _WF_CAGetMaxChannelTime
                  0x01a0d4                  _WF_CAGetMinChannelTime
                  0x01a148                  _WF_CAGetProbeDelay
                  0x01a19a                  _WF_CAGetRssi
                  0x01a178                  _WF_CAGetScanCount
                  0x01a0a8                  _WF_CAGetScanType
                  0x01a2d0                  _WF_CASetBeaconPeriod
                  0x01a32a                  _WF_CASetBeaconTimeout
                  0x01a1ea                  _WF_CASetBeaconTimeoutAction
                  0x01a22e                  _WF_CASetChannelList
                  0x01a20c                  _WF_CASetDeauthAction
                  0x01a296                  _WF_CASetDtimInterval
                  0x019f62                  _WF_CASetElements
                  0x01a01a                  _WF_CASetElementsN
                  0x01a1ce                  _WF_CASetEventNotificationAction
                  0x01a1ac                  _WF_CASetListRetryCount
                  0x01a27c                  _WF_CASetListenInterval
                  0x01a0f4                  _WF_CASetMaxChannelTime
                  0x01a0ba                  _WF_CASetMinChannelTime
                  0x01a12e                  _WF_CASetProbeDelay
                  0x01a18a                  _WF_CASetRssi
                  0x01a168                  _WF_CASetScanCount
                  0x01a098                  _WF_CASetScanType
                  0x01cf72                  _WF_CMCheckConnectionState
                  0x01ce80                  _WF_CMConnect
                  0x01ced0                  _WF_CMDisconnect
                  0x01cfae                  _WF_CMGetConnectContext
                  0x01cf08                  _WF_CMGetConnectionState
                  0x01ac0c                  _WF_CPCreate
                  0x01ac3a                  _WF_CPDelete
                  0x01af1a                  _WF_CPGetAdHocBehavior
                  0x01ad66                  _WF_CPGetBssid
                  0x01aef0                  _WF_CPGetDefaultWepKeyIndex
                  0x01acac                  _WF_CPGetElements
                  0x01ac5e                  _WF_CPGetIds
                  0x01ad90                  _WF_CPGetNetworkType
                  0x01ae72                  _WF_CPGetSecurity
                  0x01ad12                  _WF_CPGetSsid
                  0x01acd6                  _WF_CPGetSsidType
                  0x01add0                  _WF_CPGetWPSCredentials
                  0x01adba                  _WF_CPGetWepKeyType
                  0x01af06                  _WF_CPSetAdHocBehavior
                  0x01ad52                  _WF_CPSetBssid
                  0x01aedc                  _WF_CPSetDefaultWepKeyIndex
                  0x01ac86                  _WF_CPSetElements
                  0x01ad7c                  _WF_CPSetNetworkType
                  0x01adfa                  _WF_CPSetSecurity
                  0x01acec                  _WF_CPSetSsid
                  0x01acc2                  _WF_CPSetSsidType
                  0x01ada6                  _WF_CPSetWepKeyType
                  0x01ade6                  _WF_CPUpdatePMK
                  0x01da38                  _WF_Connect
                  0x01a3da                  _WF_DisableModuleConnectionManager
                  0x018ae4                  _WF_DisplayModuleAssertInfo
                  0x01dd98                  _WF_EintDisable
                  0x01dd86                  _WF_EintEnable
                  0x01dda0                  _WF_EintInit
                  0x01dd18                  _WF_EintIsDisabled
                  0x01dd2a                  _WF_EintIsPending
                  0x01991e                  _WF_EnableSWMultiCastFilter
                  0x019676                  _WF_GetDeviceInfo
                  0x0196dc                  _WF_GetMacAddress
                  0x019930                  _WF_GetMacStats
                  0x01cca2                  _WF_GetPowerSaveState
                  0x01982e                  _WF_GetRegionalDomain
                  0x01988a                  _WF_GetRtsThreshold
                  0x01980e                  _WF_GetTxDataConfirm
                  0x019654                  _WF_GetTxMode
                  0x01ccfe                  _WF_HibernateEnable
                  0x01deb8                  _WF_Init
                  0x019798                  _WF_MulticastGetConfig
                  0x0196ec                  _WF_MulticastSetConfig
                  0x01850c                  _WF_OutputConnectionContext
                  0x01859e                  _WF_OutputConnectionDebugMsg
                  0x0187e6                  _WF_OutputConnectionInfo
                  0x01d570                  _WF_ProcessEvent
                  0x01cc80                  _WF_PsPollDisable
                  0x01cc0e                  _WF_PsPollEnable
                  0x01dbe4                  _WF_Scan
                  0x01dc22                  _WF_ScanGetResult
                  0x019634                  _WF_SetLinkDownThreshold
                  0x0196cc                  _WF_SetMacAddress
                  0x0198a8                  _WF_SetMultiCastFilter
                  0x01987a                  _WF_SetPSK
                  0x01981e                  _WF_SetRegionalDomain
                  0x01983e                  _WF_SetRtsThreshold
                  0x0197fe                  _WF_SetTxDataConfirm
                  0x019644                  _WF_SetTxMode
                  0x01d98c                  _WF_SpiDisableChipSelect
                  0x01d984                  _WF_SpiEnableChipSelect
                  0x01d964                  _WF_SpiInit
                  0x01de20                  _WF_TxPowerGetFactoryMax
                  0x01ddf4                  _WF_TxPowerGetMax
                  0x01ddb2                  _WF_TxPowerSetMax
                  0x019868                  _WF_YieldPassphrase2Host
                  0x01cf5e                  _WFisConnected
                  0x01ccb2                  _WFisPsPollEnabled
                  0x01c770                  _WaitForMgmtResponse
                  0x01c810                  _WaitForMgmtResponseAndReadData
                  0x017eda                  _WiFiTask
                  0x0180ea                  _Write16BitWFRegister
                  0x01808e                  _Write8BitWFRegister
                  0x01811e                  _WriteWFArray
                  0x00c348                  __ADC1Interrupt
                  0x01c5ea                  __AddressError
                  0x00323a                  __Atexit
                  0x0017c0                  __CStrftime
                  0x001692                  __Daysto
                  0x01c596                  __DefaultInterrupt
                  0x0039da                  __Dnorm
                  0x001a58                  __FDnorm
                  0x00102a                  __FDscale
                  0x00110a                  __FDtento
                  0x001aae                  __FDunscale
                  0x001afa                  __Feraise
                  0x0034fa                  __Genld
                  0x00226c                  __Gentime
                  0x003278                  __Getdst
                  0x000b66                  __Geterrno
                  0x002dae                  __Getint
                  0x0011f8                  __Getmem
                  0x0009a0                  __Getptimes
                  0x003060                  __Getstr
                  0x0015c0                  __Gettime
                  0x001508                  __Getzone
                  0x01dd4c                  __INT1Interrupt
                  0x01c668                  __INT2Interrupt
                  0x01c690                  __INT3Interrupt
                  0x01c6b8                  __INT4Interrupt
                  0x001f66                  __Isdst
                  0x0033ca                  __LDscale
                  0x003372                  __LDunscale
                  0x00295c                  __Ldtob
                  0x00264a                  __Litob
                  0x01c63e                  __MathError
                  0x01c5c0                  __OscillatorFail
                  0x001206                  __Printf
                  0x001b10                  __Putfld
                  0x0018a8                  __Puttxt
                  0x01b618                  __RTCCInterrupt
                  0x01c614                  __StackError
                  0x000698                  __Stof
                  0x000c7c                  __Stoflt
                  0x003762                  __Stoll
                  0x000b72                  __Stopfx
                  0x00041c                  __Stoul
                  0x003816                  __Stoull
                  0x000e40                  __Stoxflt
                  0x01d0d6                  __T1Interrupt
                  0x01ce52                  __T5Interrupt
                  0x0016ca                  __Ttotm
                  0x0008fa                  __Tzoff
                  0x01c516                  __U1RXInterrupt
                  0x01c536                  __U2RXInterrupt
                  0x01c556                  __U3RXInterrupt
                  0x01c576                  __U4RXInterrupt
                  0x00189e                  __Vacopy
                  0x004950                  ___adddf3
                  0x003c16                  ___addsf3
                  0x00441e                  ___divdf3
                  0x003e46                  ___divdi3
                  0x003b00                  ___divsf3
                  0x0041c6                  ___divsi3
                  0x0042be                  ___eqdf2
                  0x003d38                  ___eqsf2
                  0x004280                  ___extendsfdf2
                  0x0042c8                  ___fixdfsi
                  0x004174                  ___fixsfsi
                  0x003b88                  ___fixunssfsi
                  0x0048e2                  ___floatdidf
                  0x0041e4                  ___floatdisf
                  0x004320                  ___floatsidf
                  0x003bbe                  ___floatsisf
                  0x00432a                  ___gedf2
                  0x003b84                  ___gesf2
                  0x00432a                  ___gtdf2
                  0x003b84                  ___gtsf2
                  0x001e0a                  ___iGetfld
                  0x001206                  ___iPrintf
                  0x001b10                  ___iPutfld
                  0x001378                  ___iScanf
                  0x0042be                  ___ledf2
                  0x003d38                  ___lesf2
                  0x0042be                  ___ltdf2
                  0x003d38                  ___ltsf2
                  0x003e80                  ___moddi3
                  0x00425c                  ___modsi3
                  0x004334                  ___muldf3
                  0x003f52                  ___muldi3
                  0x003a88                  ___mulp32eds3
                  0x003a88                  ___mulp32peds3
                  0x003cd0                  ___mulsf3
                  0x003a88                  ___mulsi3
                  0x004326                  ___subdf3
                  0x003c14                  ___subsf3
                  0x003e30                  ___udivdi3
                  0x003d62                  ___udivmoddi3
                  0x003ae0                  ___udivsi3
                  0x003e3e                  ___umoddi3
                  0x00427a                  ___umodsi3
                  0x0045ae                  ___umuldi3
                  0x01d888                  __addBI
                  0x01d946                  __copyBI
                  0x004ac6                  __dPropagateNaN
                  0x000232                  __data_init
                  0x000232                  __data_init_standard
                  0x00c312                  __dbgwrite
                  0x004810                  __dcompare
                  0x004a4a                  __dpack
                  0x0048d2                  __dreturnNaN
                  0x004aa2                  __dtype
                  0x004862                  __dunpack
                  0x0048b0                  __dunpack2
                  0x0048d8                  __dunpack2exit
                  0x0044e2                  __fPropagateNaN
                  0x0044f4                  __fbopExit
                  0x0044fc                  __fbopReturnNaN
                  0x0045f2                  __fchop
                  0x00454e                  __fcompare
                  0x000340                  __flash_helper1
                  0x00035c                  __flash_helper2
                  0x000360                  __flash_helper3
                  0x000384                  __flash_helper4
                  0x000386                  __flash_helper5
                  0x000394                  __flash_helper6
                  0x004502                  __fpack
                  0x004640                  __frexpf
                  0x004584                  __funpack
                  0x0044d2                  __funpack2
                  0x00088a                  __isprintf
                  0x0008c4                  __isscanf
                  0x01d924                  __masBI
                  0x01d8d4                  __msbBI
                  0x01d8e4                  __mulBI
                  0x000222                  __psv_init
                  0x000200                  __resetPRI
                  0x01d91a                  __sqrBI
                  0x01d8a8                  __subBI
                  0x01d8c8                  __zeroBI
                  0x0009ac                  _asctime
                  0x012fd8                  _btohexa_high
                  0x013000                  _btohexa_low
                  0x01d736                  _cARPResolveMAC
                  0x00befa                  _cJSON_AddItemReferenceToArray
                  0x00bf0e                  _cJSON_AddItemReferenceToObject
                  0x00be90                  _cJSON_AddItemToArray
                  0x00bec8                  _cJSON_AddItemToObject
                  0x00c180                  _cJSON_CreateArray
                  0x00c106                  _cJSON_CreateBool
                  0x00c262                  _cJSON_CreateDoubleArray
                  0x00c0f0                  _cJSON_CreateFalse
                  0x00c20a                  _cJSON_CreateFloatArray
                  0x00c1ac                  _cJSON_CreateIntArray
                  0x00c0c4                  _cJSON_CreateNull
                  0x00c12c                  _cJSON_CreateNumber
                  0x00c196                  _cJSON_CreateObject
                  0x00c15e                  _cJSON_CreateString
                  0x00c2ba                  _cJSON_CreateStringArray
                  0x00c0da                  _cJSON_CreateTrue
                  0x00abba                  _cJSON_Delete
                  0x00bf9e                  _cJSON_DeleteItemFromArray
                  0x00bff4                  _cJSON_DeleteItemFromObject
                  0x00bf26                  _cJSON_DetachItemFromArray
                  0x00bfb0                  _cJSON_DetachItemFromObject
                  0x00bde2                  _cJSON_GetArrayItem
                  0x00bdbe                  _cJSON_GetArraySize
                  0x00aad0                  _cJSON_GetErrorPtr
                  0x00be0a                  _cJSON_GetObjectItem
                  0x00b4d6                  _cJSON_Parse
                  0x00b50e                  _cJSON_Print
                  0x00b51e                  _cJSON_PrintUnformatted
                  0x00c006                  _cJSON_ReplaceItemInArray
                  0x00c07c                  _cJSON_ReplaceItemInObject
                  0x010bdc                  _cRSSIUpdate
                  0x01ab26                  _cSMTPBusy
                  0x01abfe                  _cSMTPReport
                  0x01ab0c                  _cSMTPSend
                  0x01aaa6                  _cSMTPSetMsg
                  0x01a9ba                  _cSMTPSetServer
                  0x01a90c                  _cSMTPStart
                  0x01ab3e                  _cSMTPStop
                  0x0135e2                  _cTCPGenericClose
                  0x013518                  _cTCPGenericOpen
                  0x013874                  _cTCPRead
                  0x013a3a                  _cTCPRemote
                  0x013bce                  _cTCPRxFlush
                  0x013c86                  _cTCPRxLen
                  0x0133f8                  _cTCPSSLStart
                  0x01331a                  _cTCPSSLStatus
                  0x013692                  _cTCPServerDetach
                  0x013954                  _cTCPWrite
                  0x013b1c                  _cTCPisConn
                  0x01382a                  _cTCPpRead
                  0x015852                  _cUDPGenericClose
                  0x0156ba                  _cUDPGenericOpen
                  0x015ce8                  _cUDPMultiOn
                  0x015c02                  _cUDPWrite
                  0x01118c                  _cWFConnect
                  0x010fd4                  _cWFDisconnect
                  0x01064e                  _cWFGetPSK
                  0x0111a0                  _cWFPsPollDisable
                  0x0111ac                  _cWFPsPollEnable
                  0x010ff4                  _cWFScan
                  0x011080                  _cWFScanList
                  0x011154                  _cWFStopConnecting
                  0x01d2f6                  _connectToWifi
                  0x01ba24                  _createGetPropertyURLPath
                  0x01b988                  _createHeader
                  0x01b9b4                  _createHeader_BL
                  0x01b9e0                  _createHeader_ContentType
                  0x01bab0                  _createPostActionURLPath
                  0x01ba6c                  _createUpdatePropertyURLPath
                  0x003a72                  _div
                  0x01badc                  _evt_GetPropertyValue
                  0x01bba6                  _evt_PostAction
                  0x01bb3e                  _evt_UpdatePropertyValue
                  0x00474c                  _expf
                  0x019144                  _findJsonInResponseStr
                  0x0041b6                  _floorf
                  0x000816                  _free
                  0x006414                  _g_RawAccessOutOfBoundsMask
                  0x01db98                  _getTimeStamp
                  0x012f62                  _hexatob
                  0x01dafe                  _initializeTime
                  0x01cc50                  _isSleepNeeded
                  0x001a3c                  _isalnum
                  0x001f38                  _isalpha
                  0x000b42                  _isspace
                  0x00465a                  _ldexpf
                  0x0034c0                  _ldiv
                  0x00098c                  _localtime
                  0x00469e                  _logf
                  0x017bde                  _main
                  0x000772                  _malloc
                  0x000b52                  _memchr
                  0x00067c                  _memcmp
                  0x000634                  _memcpy
                  0x00039a                  _memset
                  0x0009ca                  _mktime
                  0x01c89e                  _nothigToDo
                  0x01952c                  _parseProperty
                  0x003fae                  _powf
                  0x0193d2                  _print_number_value
                  0x01ca58                  _pvPortMalloc
                  0x01cd38                  _pxPortInitialiseStack
                  0x000568                  _rand
                  0x0195da                  _serializeAction
                  0x019594                  _serializeProperty
                  0x00088a                  _sprintf
                  0x000612                  _srand
                  0x0003fe                  _strcat
                  0x000642                  _strchr
                  0x000544                  _strcmp
                  0x0003e0                  _strcpy
                  0x000b1e                  _strcspn
                  0x013026                  _stricmppgm2ram
                  0x0003f0                  _strlen
                  0x01322c                  _strnchr
                  0x0008d6                  _strncmp
                  0x000742                  _strncpy
                  0x000afa                  _strspn
                  0x000654                  _strstr
                  0x0003a8                  _strtok
                  0x001600                  _strtol
                  0x0131aa                  _strupr
                  0x0130d8                  _swapl
                  0x0130be                  _swaps
                  0x01d216                  _test_evt_GetPropertyValue
                  0x01d2c6                  _test_evt_PostAction
                  0x01d286                  _test_evt_UpdatePropertyValue
                  0x000764                  _tolower
                  0x012e34                  _uitoa
                  0x012eb2                  _ultoa
                  0x018f24                  _uxQueueMessagesWaiting
                  0x018f3c                  _uxQueueMessagesWaitingFromISR
                  0x01176c                  _uxTaskGetNumberOfTasks
                  0x01d0ee                  _vListInitialise
                  0x01d120                  _vListInitialiseItem
                  0x01d172                  _vListInsert
                  0x01d12e                  _vListInsertEnd
                  0x01d1d2                  _vListRemove
                  0x01cdf0                  _vPortEndScheduler
                  0x01ce24                  _vPortEnterCritical
                  0x01ce38                  _vPortExitCritical
                  0x01cb64                  _vPortFree
                  0x01cbc8                  _vPortInitialiseBlocks
                  0x01df20                  _vPortYield
                  0x018f4c                  _vQueueDelete
                  0x011810                  _vTaskCleanUpResources
                  0x0113b4                  _vTaskDelay
                  0x01131c                  _vTaskDelayUntil
                  0x0112b0                  _vTaskDelete
                  0x011674                  _vTaskEndScheduler
                  0x011774                  _vTaskIncrementTick
                  0x011aec                  _vTaskMissedYield
                  0x011994                  _vTaskPlaceOnEventList
                  0x011cf6                  _vTaskPriorityDisinherit
                  0x011c84                  _vTaskPriorityInherit
                  0x011410                  _vTaskPrioritySet
                  0x011574                  _vTaskResume
                  0x011a6c                  _vTaskSetTimeOutState
                  0x011640                  _vTaskStartScheduler
                  0x0114e8                  _vTaskSuspend
                  0x01168a                  _vTaskSuspendAll
                  0x01193a                  _vTaskSwitchContext
                  0x01cbc0                  _xPortGetFreeHeapSize
                  0x01cdc2                  _xPortStartScheduler
                  0x018b34                  _xQueueCreate
                  0x018bd8                  _xQueueCreateMutex
                  0x018d80                  _xQueueGenericReceive
                  0x018c3c                  _xQueueGenericSend
                  0x018d20                  _xQueueGenericSendFromISR
                  0x0190e6                  _xQueueIsQueueEmptyFromISR
                  0x019126                  _xQueueIsQueueFullFromISR
                  0x018ec2                  _xQueueReceiveFromISR
                  0x011a80                  _xTaskCheckForTimeOut
                  0x0111ba                  _xTaskGenericCreate
                  0x011c78                  _xTaskGetCurrentTaskHandle
                  0x011758                  _xTaskGetTickCount
                  0x011542                  _xTaskIsTaskSuspended
                  0x0119ea                  _xTaskRemoveFromEventList
                  0x011696                  _xTaskResumeAll
                  0x0115d6                  _xTaskResumeFromISR
                  0x00087e                  sprintf.o:_prout
                  0x0008ac                  sscanf.io:_scin
                  0x011af6                  tasks.o:_prvIdleTask
                  0x001f4c                  xisdst.o:__Tls_dtor_rules
                  0x001f50                  xisdst.o:__Tls_setupx_rules

Memory Configuration

Name             Origin             Length             Attributes
data             0x000800           0x004000           a !xr
reset            0x000000           0x000004  
ivt              0x000004           0x0000fc  
aivt             0x000104           0x0000fc  
program          0x000200           0x02a9f8           xr
config4          0x02abf8           0x000002  
config3          0x02abfa           0x000002  
config2          0x02abfc           0x000002  
config1          0x02abfe           0x000002  
*default*        0x000000           0xffffffff  

Linker script and memory map

LOAD Announce.o
LOAD ARCFOUR.o
LOAD ARP.o
LOAD ARPlib.o
LOAD BigInt.o
LOAD BigInt_helper.o
LOAD Delay.o
LOAD DHCP.o
LOAD DHCPs.o
LOAD DNS.o
LOAD DNSs.o
LOAD DynDNS.o
LOAD ENCX24J600.o
LOAD FTP.o
LOAD FTPlib.o
LOAD Hashes.o
LOAD heap_2.o
LOAD Helpers.o
LOAD HTTP2.o
LOAD HWInit.o
LOAD HWlib.o
LOAD ICMP.o
LOAD INTlib.o
LOAD IP.o
LOAD ISRs.o
LOAD list.o
LOAD Main.o
LOAD MPFS2.o
LOAD NBNS.o
LOAD NETlib.o
LOAD port.o
LOAD portasm_PIC24.o
LOAD queue.o
LOAD Random.o
LOAD Reboot.o
LOAD Regs.o
LOAD RSA.o
LOAD RTCClib.o
LOAD SMTP.o
LOAD SMTPlib.o
LOAD SNTP.o
LOAD SPIFlash.o
LOAD SSL.o
LOAD StackTsk.o
LOAD taskFlyport.o
LOAD tasks.o
LOAD TCP.o
LOAD TCPIP_Utils.o
LOAD TCPlib.o
LOAD Tick.o
LOAD UDP.o
LOAD UDPlib.o
LOAD WFConnectionAlgorithm.o
LOAD WFConnectionManager.o
LOAD WFConnectionProfile.o
LOAD WFDataTxRx.o
LOAD WFDebugStrings.o
LOAD WFDriverCom.o
LOAD WFDriverCom_24G.o
LOAD WFDriverRaw.o
LOAD WFDriverRaw_24G.o
LOAD WFEventHandler.o
LOAD WFInit.o
LOAD WFMac.o
LOAD WFMac_24G.o
LOAD WFMgmtMsg.o
LOAD WFMgmtMsg_24G.o
LOAD WFParamMsg.o
LOAD WFParamMsg_24G.o
LOAD WFPowerSave.o
LOAD WFScan.o
LOAD WFTxPower.o
LOAD WF_Config.o
LOAD WF_Eint.o
LOAD WF_Events.o
LOAD WF_Spi.o
LOAD WF_Utils.o
LOAD x_cJSON.o
LOAD x_evrythng.o
LOAD x_evrythng_utils.o
LOAD x_heap.o
LOAD x_HTTPlib.o
LOAD x_timestamp.o
LOAD ZeroconfHelper.o
LOAD ZeroconfLinkLocal.o
LOAD ZeroconfMulticastDNS.o
LOAD c:/program files (x86)/microchip/mplab c30/bin/bin/../../lib/PIC24F\libpPIC24Fxxx-coff.a
                    0x2abfa                  __CONFIG3 = 0x2abfa
                    0x2abfc                  __CONFIG2 = 0x2abfc
                    0x2abfe                  __CONFIG1 = 0x2abfe
                    0x0004                  __IVT_BASE = 0x4
                    0x0104                  __AIVT_BASE = 0x104
                    0x0800                  __DATA_BASE = 0x800
                    0x0200                  __CODE_BASE = 0x200

.reset            0x000000          0x4
                  0x000000          0x2 SHORT 0x200 <code 339> (__reset)
                  0x000001          0x2 SHORT 0x4
                  0x000002          0x2 SHORT 0x0 ((<code 339> (__reset) >> 0x10) & 0x7f)
                  0x000003          0x2 SHORT 0x0

.text             0x000200       0x48e2
 *(.init)
 .init            0x000200         0x32 c:/program files (x86)/microchip/mplab c30/bin/bin/../../lib\libpic30-coff.a(crt0_standard.o)
                  0x000200                  _resetPRI
                  0x000200                  _reset
                  0x000222                  _psv_init
 .init            0x000232         0x5e c:/program files (x86)/microchip/mplab c30/bin/bin/../../lib\libpic30-coff.a(data_init_standard.o)
                  0x000232                  _data_init_standard
                  0x000232                  _data_init
 *(.user_init)
 *(.handle)
 .handle          0x000290         0xb0 jump_table
 *(.libc)
 .libc            0x000340         0x5a c:/program files (x86)/microchip/mplab c30/bin/bin/../../lib\libpic30-coff.a(flash_helper.o)
                  0x000340                  _flash_helper1
                  0x00035c                  _flash_helper2
                  0x000360                  _flash_helper3
                  0x000384                  _flash_helper4
                  0x000386                  _flash_helper5
                  0x000394                  _flash_helper6
 .libc            0x00039a          0xe c:/program files (x86)/microchip/mplab c30/bin/bin/../../lib\libc-coff.a(memset.o)
                  0x00039a                  memset
 .libc            0x0003a8         0x38 c:/program files (x86)/microchip/mplab c30/bin/bin/../../lib\libc-coff.a(strtok.o)
                  0x0003a8                  strtok
 .libc            0x0003e0         0x10 c:/program files (x86)/microchip/mplab c30/bin/bin/../../lib\libc-coff.a(strcpy.o)
                  0x0003e0                  strcpy
 .libc            0x0003f0          0xe c:/program files (x86)/microchip/mplab c30/bin/bin/../../lib\libc-coff.a(strlen.o)
                  0x0003f0                  strlen
 .libc            0x0003fe         0x1e c:/program files (x86)/microchip/mplab c30/bin/bin/../../lib\libc-coff.a(strcat.o)
                  0x0003fe                  strcat
 .libc            0x00041c        0x128 c:/program files (x86)/microchip/mplab c30/bin/bin/../../lib\libc-coff.a(xstoul.o)
                  0x00041c                  _Stoul
 .libc            0x000544         0x24 c:/program files (x86)/microchip/mplab c30/bin/bin/../../lib\libc-coff.a(strcmp.o)
                  0x000544                  strcmp
 .libc            0x000568         0xaa c:/program files (x86)/microchip/mplab c30/bin/bin/../../lib\libc-coff.a(rand.o)
                  0x000568                  rand
 .libc            0x000612         0x22 c:/program files (x86)/microchip/mplab c30/bin/bin/../../lib\libc-coff.a(srand.o)
                  0x000612                  srand
 .libc            0x000634          0xe c:/program files (x86)/microchip/mplab c30/bin/bin/../../lib\libc-coff.a(memcpy.o)
                  0x000634                  memcpy
 .libc            0x000642         0x12 c:/program files (x86)/microchip/mplab c30/bin/bin/../../lib\libc-coff.a(strchr.o)
                  0x000642                  strchr
 .libc            0x000654         0x28 c:/program files (x86)/microchip/mplab c30/bin/bin/../../lib\libc-coff.a(strstr.o)
                  0x000654                  strstr
 .libc            0x00067c         0x1c c:/program files (x86)/microchip/mplab c30/bin/bin/../../lib\libc-coff.a(memcmp.o)
                  0x00067c                  memcmp
 .libc            0x000698         0xaa c:/program files (x86)/microchip/mplab c30/bin/bin/../../lib\libc-coff.a(xstod.o)
                  0x000698                  _Stof
 .libc            0x000742         0x22 c:/program files (x86)/microchip/mplab c30/bin/bin/../../lib\libc-coff.a(strncpy.o)
                  0x000742                  strncpy
 .libc            0x000764          0xe c:/program files (x86)/microchip/mplab c30/bin/bin/../../lib\libc-coff.a(tolower.o)
                  0x000764                  tolower
 .libc            0x000772         0xa4 c:/program files (x86)/microchip/mplab c30/bin/bin/../../lib\libc-coff.a(malloc.o)
                  0x000772                  malloc
 .libc            0x000816         0x68 c:/program files (x86)/microchip/mplab c30/bin/bin/../../lib\libc-coff.a(free.o)
                  0x000816                  free
 .libc            0x00087e         0x2e c:/program files (x86)/microchip/mplab c30/bin/bin/../../lib\libc-coff.a(sprintf.o)
                  0x00087e                  sprintf.o:_prout
                  0x00088a                  _isprintf
                  0x00088a                  sprintf
 .libc            0x0008ac         0x2a c:/program files (x86)/microchip/mplab c30/bin/bin/../../lib\libc-coff.a(sscanf.io)
                  0x0008ac                  sscanf.io:_scin
                  0x0008c4                  _isscanf
 .libc            0x0008d6         0x24 c:/program files (x86)/microchip/mplab c30/bin/bin/../../lib\libc-coff.a(strncmp.o)
                  0x0008d6                  strncmp
 .libc            0x0008fa         0xa6 c:/program files (x86)/microchip/mplab c30/bin/bin/../../lib\libc-coff.a(localtim.o)
                  0x0008fa                  _Tzoff
                  0x00098c                  localtime
 .libc            0x0009a0         0x2a c:/program files (x86)/microchip/mplab c30/bin/bin/../../lib\libc-coff.a(asctime.o)
                  0x0009a0                  _Getptimes
                  0x0009ac                  asctime
 .libc            0x0009ca        0x130 c:/program files (x86)/microchip/mplab c30/bin/bin/../../lib\libc-coff.a(mktime.o)
                  0x0009ca                  mktime
 .libc            0x000afa         0x24 c:/program files (x86)/microchip/mplab c30/bin/bin/../../lib\libc-coff.a(strspn.o)
                  0x000afa                  strspn
 .libc            0x000b1e         0x24 c:/program files (x86)/microchip/mplab c30/bin/bin/../../lib\libc-coff.a(strcspn.o)
                  0x000b1e                  strcspn
 .libc            0x000b42         0x10 c:/program files (x86)/microchip/mplab c30/bin/bin/../../lib\libc-coff.a(isspace.o)
                  0x000b42                  isspace
 .libc            0x000b52         0x14 c:/program files (x86)/microchip/mplab c30/bin/bin/../../lib\libc-coff.a(memchr.o)
                  0x000b52                  memchr
 .libc            0x000b66          0xc c:/program files (x86)/microchip/mplab c30/bin/bin/../../lib\libc-coff.a(errno.o)
                  0x000b66                  _Geterrno
 .libc            0x000b72        0x10a c:/program files (x86)/microchip/mplab c30/bin/bin/../../lib\libc-coff.a(xstopfx.o)
                  0x000b72                  _Stopfx
 .libc            0x000c7c        0x1c4 c:/program files (x86)/microchip/mplab c30/bin/bin/../../lib\libc-coff.a(xstoflt.o)
                  0x000c7c                  _Stoflt
 .libc            0x000e40        0x1ea c:/program files (x86)/microchip/mplab c30/bin/bin/../../lib\libc-coff.a(xstoxflt.o)
                  0x000e40                  _Stoxflt
 .libc            0x00102a         0xb8 c:/program files (x86)/microchip/mplab c30/bin/bin/../../lib\libc-coff.a(xfdscale.o)
                  0x00102a                  _FDscale
 .libc            0x0010e2        0x116 c:/program files (x86)/microchip/mplab c30/bin/bin/../../lib\libc-coff.a(xdtento.o)
                  0x00110a                  _FDtento
 .libc            0x0011f8          0xe c:/program files (x86)/microchip/mplab c30/bin/bin/../../lib\libc-coff.a(xgetmem.o)
                  0x0011f8                  _Getmem
 .libc            0x001206        0x172 c:/program files (x86)/microchip/mplab c30/bin/bin/../../lib\libc-coff.a(xprintf.o)
                  0x001206                  _Printf
                  0x001206                  __iPrintf
 .libc            0x001378        0x190 c:/program files (x86)/microchip/mplab c30/bin/bin/../../lib\libc-coff.a(xscanf.io)
                  0x001378                  __iScanf
 .libc            0x001508         0xb8 c:/program files (x86)/microchip/mplab c30/bin/bin/../../lib\libc-coff.a(xgetzone.o)
                  0x001508                  _Getzone
 .libc            0x0015c0         0x40 c:/program files (x86)/microchip/mplab c30/bin/bin/../../lib\libc-coff.a(xgettime.o)
                  0x0015c0                  _Gettime
 .libc            0x001600         0x92 c:/program files (x86)/microchip/mplab c30/bin/bin/../../lib\libc-coff.a(strtol.o)
                  0x001600                  strtol
 .libc            0x001692        0x12e c:/program files (x86)/microchip/mplab c30/bin/bin/../../lib\libc-coff.a(xttotm.o)
                  0x001692                  _Daysto
                  0x0016ca                  _Ttotm
 .libc            0x0017c0         0xde c:/program files (x86)/microchip/mplab c30/bin/bin/../../lib\libc-coff.a(xstrftim.o)
                  0x0017c0                  _CStrftime
 .libc            0x00189e          0xa c:/program files (x86)/microchip/mplab c30/bin/bin/../../lib\libc-coff.a(xvacopy.o)
                  0x00189e                  _Vacopy
 .libc            0x0018a8        0x194 c:/program files (x86)/microchip/mplab c30/bin/bin/../../lib\libc-coff.a(xputtxt.o)
                  0x0018a8                  _Puttxt
 .libc            0x001a3c         0x1c c:/program files (x86)/microchip/mplab c30/bin/bin/../../lib\libc-coff.a(isalnum.o)
                  0x001a3c                  isalnum
 .libc            0x001a58         0x56 c:/program files (x86)/microchip/mplab c30/bin/bin/../../lib\libc-coff.a(xfdnorm.o)
                  0x001a58                  _FDnorm
 .libc            0x001aae         0x4c c:/program files (x86)/microchip/mplab c30/bin/bin/../../lib\libc-coff.a(xfdunsca.o)
                  0x001aae                  _FDunscale
 .libc            0x001afa         0x16 c:/program files (x86)/microchip/mplab c30/bin/bin/../../lib\libc-coff.a(xferaise.o)
                  0x001afa                  _Feraise
 .libc            0x001b10        0x2fa c:/program files (x86)/microchip/mplab c30/bin/bin/../../lib\libc-coff.a(xputfld.o)
                  0x001b10                  __iPutfld
                  0x001b10                  _Putfld
 .libc            0x001e0a        0x12e c:/program files (x86)/microchip/mplab c30/bin/bin/../../lib\libc-coff.a(xgetfld.io)
                  0x001e0a                  __iGetfld
 .libc            0x001f38         0x14 c:/program files (x86)/microchip/mplab c30/bin/bin/../../lib\libc-coff.a(isalpha.o)
                  0x001f38                  isalpha
 .libc            0x001f4c        0x122 c:/program files (x86)/microchip/mplab c30/bin/bin/../../lib\libc-coff.a(xisdst.o)
                  0x001f4c                  xisdst.o:__Tls_dtor_rules
                  0x001f50                  xisdst.o:__Tls_setupx_rules
                  0x001f66                  _Isdst
 .libc            0x00206e        0x5dc c:/program files (x86)/microchip/mplab c30/bin/bin/../../lib\libc-coff.a(xgentime.o)
                  0x00226c                  _Gentime
 .libc            0x00264a        0x312 c:/program files (x86)/microchip/mplab c30/bin/bin/../../lib\libc-coff.a(xlitob.o)
                  0x00264a                  _Litob
 .libc            0x00295c        0x452 c:/program files (x86)/microchip/mplab c30/bin/bin/../../lib\libc-coff.a(xldtob.o)
                  0x00295c                  _Ldtob
 .libc            0x002dae        0x276 c:/program files (x86)/microchip/mplab c30/bin/bin/../../lib\libc-coff.a(xgetint.o)
                  0x002dae                  _Getint
 .libc            0x003024        0x216 c:/program files (x86)/microchip/mplab c30/bin/bin/../../lib\libc-coff.a(xgetstr.o)
                  0x003060                  _Getstr
 .libc            0x00323a         0x1a c:/program files (x86)/microchip/mplab c30/bin/bin/../../lib\libc-coff.a(xatexit.o)
                  0x00323a                  _Atexit
 .libc            0x003254        0x11e c:/program files (x86)/microchip/mplab c30/bin/bin/../../lib\libc-coff.a(xgetdst.o)
                  0x003278                  _Getdst
 .libc            0x003372         0x58 c:/program files (x86)/microchip/mplab c30/bin/bin/../../lib\libc-coff.a(xldunsca.o)
                  0x003372                  _LDunscale
 .libc            0x0033ca         0xf6 c:/program files (x86)/microchip/mplab c30/bin/bin/../../lib\libc-coff.a(xldscale.o)
                  0x0033ca                  _LDscale
 .libc            0x0034c0         0x3a c:/program files (x86)/microchip/mplab c30/bin/bin/../../lib\libc-coff.a(ldiv.o)
                  0x0034c0                  ldiv
 .libc            0x0034fa        0x268 c:/program files (x86)/microchip/mplab c30/bin/bin/../../lib\libc-coff.a(xgenld.o)
                  0x0034fa                  _Genld
 .libc            0x003762         0xb4 c:/program files (x86)/microchip/mplab c30/bin/bin/../../lib\libc-coff.a(xstoll.o)
                  0x003762                  _Stoll
 .libc            0x003816        0x1c4 c:/program files (x86)/microchip/mplab c30/bin/bin/../../lib\libc-coff.a(xstoull.o)
                  0x003816                  _Stoull
 .libc            0x0039da         0x98 c:/program files (x86)/microchip/mplab c30/bin/bin/../../lib\libc-coff.a(xdnorm.o)
                  0x0039da                  _Dnorm
 .libc            0x003a72         0x16 c:/program files (x86)/microchip/mplab c30/bin/bin/../../lib\libc-coff.a(div.o)
                  0x003a72                  div
 .libc            0x003a88          0xc c:/program files (x86)/microchip/mplab c30/bin/bin/../../lib\libm-coff.a(mulsi3.o)
                  0x003a88                  __mulp32peds3
                  0x003a88                  __mulsi3
                  0x003a88                  __mulp32eds3
 .libc            0x003a94         0x2c c:/program files (x86)/microchip/mplab c30/bin/bin/../../lib\libpic30-coff.a(sbrk.o)
                  0x003a94                  sbrk
 .libc            0x003ac0          0x2 c:/program files (x86)/microchip/mplab c30/bin/bin/../../lib\libpic30-coff.a(getenv.o)
                  0x003ac0                  getenv
 .libc            0x003ac2         0x1e c:/program files (x86)/microchip/mplab c30/bin/bin/../../lib\libpic30-coff.a(brk.o)
                  0x003ac2                  brk
 *(.libm)
 .libm            0x003ae0         0x20 c:/program files (x86)/microchip/mplab c30/bin/bin/../../lib\libm-coff.a(udivsi3.o)
                  0x003ae0                  __udivsi3
 .libm            0x003b00         0x84 c:/program files (x86)/microchip/mplab c30/bin/bin/../../lib\libm-coff.a(divsf3.o)
                  0x003b00                  __divsf3
 .libm            0x003b84          0x4 c:/program files (x86)/microchip/mplab c30/bin/bin/../../lib\libm-coff.a(fgtge.o)
                  0x003b84                  __gesf2
                  0x003b84                  __gtsf2
 .libm            0x003b88         0x36 c:/program files (x86)/microchip/mplab c30/bin/bin/../../lib\libm-coff.a(fixunssfsi.o)
                  0x003b88                  __fixunssfsi
 .libm            0x003bbe         0x56 c:/program files (x86)/microchip/mplab c30/bin/bin/../../lib\libm-coff.a(floatsisf.o)
                  0x003bbe                  __floatsisf
 .libm            0x003c14         0xbc c:/program files (x86)/microchip/mplab c30/bin/bin/../../lib\libm-coff.a(addsf3.o)
                  0x003c14                  __subsf3
                  0x003c16                  __addsf3
 .libm            0x003cd0         0x68 c:/program files (x86)/microchip/mplab c30/bin/bin/../../lib\libm-coff.a(mulsf3.o)
                  0x003cd0                  __mulsf3
 .libm            0x003d38          0x4 c:/program files (x86)/microchip/mplab c30/bin/bin/../../lib\libm-coff.a(feqltle.o)
                  0x003d38                  __eqsf2
                  0x003d38                  __ltsf2
                  0x003d38                  __lesf2
 .libm            0x003d3c        0x216 c:/program files (x86)/microchip/mplab c30/bin/bin/../../lib\libm-coff.a(divmoddi3.o)
                  0x003d62                  __udivmoddi3
                  0x003e30                  __udivdi3
                  0x003e3e                  __umoddi3
                  0x003e46                  __divdi3
                  0x003e80                  __moddi3
 .libm            0x003f52         0x5c c:/program files (x86)/microchip/mplab c30/bin/bin/../../lib\libm-coff.a(muldi3.o)
                  0x003f52                  __muldi3
 .libm            0x003fae        0x1c6 c:/program files (x86)/microchip/mplab c30/bin/bin/../../lib\libm-coff.a(powf.o)
                  0x003fae                  powf
 .libm            0x004174         0x42 c:/program files (x86)/microchip/mplab c30/bin/bin/../../lib\libm-coff.a(fixsfsi.o)
                  0x004174                  __fixsfsi
 .libm            0x0041b6         0x10 c:/program files (x86)/microchip/mplab c30/bin/bin/../../lib\libm-coff.a(floorf.o)
                  0x0041b6                  floorf
 .libm            0x0041c6         0x1e c:/program files (x86)/microchip/mplab c30/bin/bin/../../lib\libm-coff.a(divsi3.o)
                  0x0041c6                  __divsi3
 .libm            0x0041e4         0x78 c:/program files (x86)/microchip/mplab c30/bin/bin/../../lib\libm-coff.a(floatdisf.o)
                  0x0041e4                  __floatdisf
 .libm            0x00425c         0x1e c:/program files (x86)/microchip/mplab c30/bin/bin/../../lib\libm-coff.a(modsi3.o)
                  0x00425c                  __modsi3
 .libm            0x00427a          0x6 c:/program files (x86)/microchip/mplab c30/bin/bin/../../lib\libm-coff.a(umodsi3.o)
                  0x00427a                  __umodsi3
 .libm            0x004280         0x3e c:/program files (x86)/microchip/mplab c30/bin/bin/../../lib\libm-coff.a(extendsfdf.o)
                  0x004280                  __extendsfdf2
 .libm            0x0042be          0xa c:/program files (x86)/microchip/mplab c30/bin/bin/../../lib\libm-coff.a(deqltle.o)
                  0x0042be                  __eqdf2
                  0x0042be                  __ltdf2
                  0x0042be                  __ledf2
 .libm            0x0042c8         0x58 c:/program files (x86)/microchip/mplab c30/bin/bin/../../lib\libm-coff.a(fixdfsi.o)
                  0x0042c8                  __fixdfsi
 .libm            0x004320          0x6 c:/program files (x86)/microchip/mplab c30/bin/bin/../../lib\libm-coff.a(floatsidf.o)
                  0x004320                  __floatsidf
 .libm            0x004326          0x4 c:/program files (x86)/microchip/mplab c30/bin/bin/../../lib\libm-coff.a(subdf3.o)
                  0x004326                  __subdf3
 .libm            0x00432a          0xa c:/program files (x86)/microchip/mplab c30/bin/bin/../../lib\libm-coff.a(dgtge.o)
                  0x00432a                  __gtdf2
                  0x00432a                  __gedf2
 .libm            0x004334         0xea c:/program files (x86)/microchip/mplab c30/bin/bin/../../lib\libm-coff.a(muldf3.o)
                  0x004334                  __muldf3
 .libm            0x00441e         0xb4 c:/program files (x86)/microchip/mplab c30/bin/bin/../../lib\libm-coff.a(divdf3.o)
                  0x00441e                  __divdf3
 .libm            0x0044d2         0x10 c:/program files (x86)/microchip/mplab c30/bin/bin/../../lib\libm-coff.a(funpack2.o)
                  0x0044d2                  _funpack2
 .libm            0x0044e2         0x20 c:/program files (x86)/microchip/mplab c30/bin/bin/../../lib\libm-coff.a(futil.o)
                  0x0044e2                  _fPropagateNaN
                  0x0044f4                  _fbopExit
                  0x0044fc                  _fbopReturnNaN
 .libm            0x004502         0x4c c:/program files (x86)/microchip/mplab c30/bin/bin/../../lib\libm-coff.a(fpack.o)
                  0x004502                  _fpack
 .libm            0x00454e         0x36 c:/program files (x86)/microchip/mplab c30/bin/bin/../../lib\libm-coff.a(fcompare.o)
                  0x00454e                  _fcompare
 .libm            0x004584         0x2a c:/program files (x86)/microchip/mplab c30/bin/bin/../../lib\libm-coff.a(funpack.o)
                  0x004584                  _funpack
 .libm            0x0045ae         0x44 c:/program files (x86)/microchip/mplab c30/bin/bin/../../lib\libm-coff.a(umuldi3.o)
                  0x0045ae                  __umuldi3
 .libm            0x0045f2         0x4e c:/program files (x86)/microchip/mplab c30/bin/bin/../../lib\libm-coff.a(fchop.o)
                  0x0045f2                  _fchop
 .libm            0x004640         0x1a c:/program files (x86)/microchip/mplab c30/bin/bin/../../lib\libm-coff.a(_frexpf.o)
                  0x004640                  _frexpf
 .libm            0x00465a         0x44 c:/program files (x86)/microchip/mplab c30/bin/bin/../../lib\libm-coff.a(ldexpf.o)
                  0x00465a                  ldexpf
 .libm            0x00469e         0xae c:/program files (x86)/microchip/mplab c30/bin/bin/../../lib\libm-coff.a(logf.o)
                  0x00469e                  logf
 .libm            0x00474c         0xc4 c:/program files (x86)/microchip/mplab c30/bin/bin/../../lib\libm-coff.a(expf.o)
                  0x00474c                  expf
 .libm            0x004810         0x52 c:/program files (x86)/microchip/mplab c30/bin/bin/../../lib\libm-coff.a(dcompare.o)
                  0x004810                  _dcompare
 .libm            0x004862         0x4e c:/program files (x86)/microchip/mplab c30/bin/bin/../../lib\libm-coff.a(dunpack.o)
                  0x004862                  _dunpack
 .libm            0x0048b0         0x32 c:/program files (x86)/microchip/mplab c30/bin/bin/../../lib\libm-coff.a(dunpack2.o)
                  0x0048b0                  _dunpack2
                  0x0048d2                  _dreturnNaN
                  0x0048d8                  _dunpack2exit
 .libm            0x0048e2         0x6e c:/program files (x86)/microchip/mplab c30/bin/bin/../../lib\libm-coff.a(floatdidf.o)
                  0x0048e2                  __floatdidf
 .libm            0x004950         0xfa c:/program files (x86)/microchip/mplab c30/bin/bin/../../lib\libm-coff.a(adddf3.o)
                  0x004950                  __adddf3
 .libm            0x004a4a         0x58 c:/program files (x86)/microchip/mplab c30/bin/bin/../../lib\libm-coff.a(dpack.o)
                  0x004a4a                  _dpack
 .libm            0x004aa2         0x24 c:/program files (x86)/microchip/mplab c30/bin/bin/../../lib\libm-coff.a(dtype.o)
                  0x004aa2                  _dtype
 .libm            0x004ac6         0x1c c:/program files (x86)/microchip/mplab c30/bin/bin/../../lib\libm-coff.a(dpropagateNaN.o)
                  0x004ac6                  _dPropagateNaN
 *(.libdsp)
 *(.lib*)

usercode
 *(usercode)

__CONFIG3
 *(__CONFIG3.sec)

__CONFIG2         0x02abfc          0x2
 *(__CONFIG2.sec)
 __CONFIG2.sec    0x02abfc          0x2 Main.o

__CONFIG1         0x02abfe          0x2
 *(__CONFIG1.sec)
 __CONFIG1.sec    0x02abfe          0x2 Main.o

.comment
 *(.comment)

.debug_info
 *(.debug_info)
 *(.gnu.linkonce.wi.*)

.debug_abbrev
 *(.debug_abbrev)

.debug_line
 *(.debug_line)

.debug_frame
 *(.debug_frame)

.debug_str
 *(.debug_str)

.debug_loc
 *(.debug_loc)

.debug_macinfo
 *(.debug_macinfo)

.debug_pubnames
 *(.debug_pubnames)

.debug_ranges
 *(.debug_ranges)

.debug_aranges
 *(.debug_aranges)

.ivt              0x000004         0xfc
                  0x000004          0x4 LONG 0x1c596 DEFINED (__ReservedTrap0)?<code 339> (__ReservedTrap0):<code 339> (__DefaultInterrupt)
                  0x000006          0x4 LONG 0x1c5c0 DEFINED (__OscillatorFail)?<code 339> (__OscillatorFail):<code 339> (__DefaultInterrupt)
                  0x000008          0x4 LONG 0x1c5ea DEFINED (__AddressError)?<code 339> (__AddressError):<code 339> (__DefaultInterrupt)
                  0x00000a          0x4 LONG 0x1c614 DEFINED (__StackError)?<code 339> (__StackError):<code 339> (__DefaultInterrupt)
                  0x00000c          0x4 LONG 0x1c63e DEFINED (__MathError)?<code 339> (__MathError):<code 339> (__DefaultInterrupt)
                  0x00000e          0x4 LONG 0x1c596 DEFINED (__ReservedTrap5)?<code 339> (__ReservedTrap5):<code 339> (__DefaultInterrupt)
                  0x000010          0x4 LONG 0x1c596 DEFINED (__ReservedTrap6)?<code 339> (__ReservedTrap6):<code 339> (__DefaultInterrupt)
                  0x000012          0x4 LONG 0x1c596 DEFINED (__ReservedTrap7)?<code 339> (__ReservedTrap7):<code 339> (__DefaultInterrupt)
                  0x000014          0x4 LONG 0x1c596 DEFINED (__INT0Interrupt)?<code 339> (__INT0Interrupt):<code 339> (__DefaultInterrupt)
                  0x000016          0x4 LONG 0x1c596 DEFINED (__IC1Interrupt)?<code 339> (__IC1Interrupt):<code 339> (__DefaultInterrupt)
                  0x000018          0x4 LONG 0x1c596 DEFINED (__OC1Interrupt)?<code 339> (__OC1Interrupt):<code 339> (__DefaultInterrupt)
                  0x00001a          0x4 LONG 0x1d0d6 DEFINED (__T1Interrupt)?<code 339> (__T1Interrupt):<code 339> (__DefaultInterrupt)
                  0x00001c          0x4 LONG 0x1c596 DEFINED (__Interrupt4)?<code 339> (__Interrupt4):<code 339> (__DefaultInterrupt)
                  0x00001e          0x4 LONG 0x1c596 DEFINED (__IC2Interrupt)?<code 339> (__IC2Interrupt):<code 339> (__DefaultInterrupt)
                  0x000020          0x4 LONG 0x1c596 DEFINED (__OC2Interrupt)?<code 339> (__OC2Interrupt):<code 339> (__DefaultInterrupt)
                  0x000022          0x4 LONG 0x1c596 DEFINED (__T2Interrupt)?<code 339> (__T2Interrupt):<code 339> (__DefaultInterrupt)
                  0x000024          0x4 LONG 0x1c596 DEFINED (__T3Interrupt)?<code 339> (__T3Interrupt):<code 339> (__DefaultInterrupt)
                  0x000026          0x4 LONG 0x1c596 DEFINED (__SPI1ErrInterrupt)?<code 339> (__SPI1ErrInterrupt):<code 339> (__DefaultInterrupt)
                  0x000028          0x4 LONG 0x1c596 DEFINED (__SPI1Interrupt)?<code 339> (__SPI1Interrupt):<code 339> (__DefaultInterrupt)
                  0x00002a          0x4 LONG 0x1c516 DEFINED (__U1RXInterrupt)?<code 339> (__U1RXInterrupt):<code 339> (__DefaultInterrupt)
                  0x00002c          0x4 LONG 0x1c596 DEFINED (__U1TXInterrupt)?<code 339> (__U1TXInterrupt):<code 339> (__DefaultInterrupt)
                  0x00002e          0x4 LONG 0xc348 DEFINED (__ADC1Interrupt)?<code 339> (__ADC1Interrupt):<code 339> (__DefaultInterrupt)
                  0x000030          0x4 LONG 0x1c596 DEFINED (__Interrupt14)?<code 339> (__Interrupt14):<code 339> (__DefaultInterrupt)
                  0x000032          0x4 LONG 0x1c596 DEFINED (__Interrupt15)?<code 339> (__Interrupt15):<code 339> (__DefaultInterrupt)
                  0x000034          0x4 LONG 0x1c596 DEFINED (__SI2C1Interrupt)?<code 339> (__SI2C1Interrupt):<code 339> (__DefaultInterrupt)
                  0x000036          0x4 LONG 0x1c596 DEFINED (__MI2C1Interrupt)?<code 339> (__MI2C1Interrupt):<code 339> (__DefaultInterrupt)
                  0x000038          0x4 LONG 0x1c596 DEFINED (__CompInterrupt)?<code 339> (__CompInterrupt):<code 339> (__DefaultInterrupt)
                  0x00003a          0x4 LONG 0x1c596 DEFINED (__CNInterrupt)?<code 339> (__CNInterrupt):<code 339> (__DefaultInterrupt)
                  0x00003c          0x4 LONG 0x1dd4c DEFINED (__INT1Interrupt)?<code 339> (__INT1Interrupt):<code 339> (__DefaultInterrupt)
                  0x00003e          0x4 LONG 0x1c596 DEFINED (__Interrupt21)?<code 339> (__Interrupt21):<code 339> (__DefaultInterrupt)
                  0x000040          0x4 LONG 0x1c596 DEFINED (__IC7Interrupt)?<code 339> (__IC7Interrupt):<code 339> (__DefaultInterrupt)
                  0x000042          0x4 LONG 0x1c596 DEFINED (__IC8Interrupt)?<code 339> (__IC8Interrupt):<code 339> (__DefaultInterrupt)
                  0x000044          0x4 LONG 0x1c596 DEFINED (__Interrupt24)?<code 339> (__Interrupt24):<code 339> (__DefaultInterrupt)
                  0x000046          0x4 LONG 0x1c596 DEFINED (__OC3Interrupt)?<code 339> (__OC3Interrupt):<code 339> (__DefaultInterrupt)
                  0x000048          0x4 LONG 0x1c596 DEFINED (__OC4Interrupt)?<code 339> (__OC4Interrupt):<code 339> (__DefaultInterrupt)
                  0x00004a          0x4 LONG 0x1c596 DEFINED (__T4Interrupt)?<code 339> (__T4Interrupt):<code 339> (__DefaultInterrupt)
                  0x00004c          0x4 LONG 0x1ce52 DEFINED (__T5Interrupt)?<code 339> (__T5Interrupt):<code 339> (__DefaultInterrupt)
                  0x00004e          0x4 LONG 0x1c668 DEFINED (__INT2Interrupt)?<code 339> (__INT2Interrupt):<code 339> (__DefaultInterrupt)
                  0x000050          0x4 LONG 0x1c536 DEFINED (__U2RXInterrupt)?<code 339> (__U2RXInterrupt):<code 339> (__DefaultInterrupt)
                  0x000052          0x4 LONG 0x1c596 DEFINED (__U2TXInterrupt)?<code 339> (__U2TXInterrupt):<code 339> (__DefaultInterrupt)
                  0x000054          0x4 LONG 0x1c596 DEFINED (__SPI2ErrInterrupt)?<code 339> (__SPI2ErrInterrupt):<code 339> (__DefaultInterrupt)
                  0x000056          0x4 LONG 0x1c596 DEFINED (__SPI2Interrupt)?<code 339> (__SPI2Interrupt):<code 339> (__DefaultInterrupt)
                  0x000058          0x4 LONG 0x1c596 DEFINED (__Interrupt34)?<code 339> (__Interrupt34):<code 339> (__DefaultInterrupt)
                  0x00005a          0x4 LONG 0x1c596 DEFINED (__Interrupt35)?<code 339> (__Interrupt35):<code 339> (__DefaultInterrupt)
                  0x00005c          0x4 LONG 0x1c596 DEFINED (__Interrupt36)?<code 339> (__Interrupt36):<code 339> (__DefaultInterrupt)
                  0x00005e          0x4 LONG 0x1c596 DEFINED (__IC3Interrupt)?<code 339> (__IC3Interrupt):<code 339> (__DefaultInterrupt)
                  0x000060          0x4 LONG 0x1c596 DEFINED (__IC4Interrupt)?<code 339> (__IC4Interrupt):<code 339> (__DefaultInterrupt)
                  0x000062          0x4 LONG 0x1c596 DEFINED (__IC5Interrupt)?<code 339> (__IC5Interrupt):<code 339> (__DefaultInterrupt)
                  0x000064          0x4 LONG 0x1c596 DEFINED (__IC6Interrupt)?<code 339> (__IC6Interrupt):<code 339> (__DefaultInterrupt)
                  0x000066          0x4 LONG 0x1c596 DEFINED (__OC5Interrupt)?<code 339> (__OC5Interrupt):<code 339> (__DefaultInterrupt)
                  0x000068          0x4 LONG 0x1c596 DEFINED (__OC6Interrupt)?<code 339> (__OC6Interrupt):<code 339> (__DefaultInterrupt)
                  0x00006a          0x4 LONG 0x1c596 DEFINED (__OC7Interrupt)?<code 339> (__OC7Interrupt):<code 339> (__DefaultInterrupt)
                  0x00006c          0x4 LONG 0x1c596 DEFINED (__OC8Interrupt)?<code 339> (__OC8Interrupt):<code 339> (__DefaultInterrupt)
                  0x00006e          0x4 LONG 0x1c596 DEFINED (__PMPInterrupt)?<code 339> (__PMPInterrupt):<code 339> (__DefaultInterrupt)
                  0x000070          0x4 LONG 0x1c596 DEFINED (__Interrupt46)?<code 339> (__Interrupt46):<code 339> (__DefaultInterrupt)
                  0x000072          0x4 LONG 0x1c596 DEFINED (__Interrupt47)?<code 339> (__Interrupt47):<code 339> (__DefaultInterrupt)
                  0x000074          0x4 LONG 0x1c596 DEFINED (__Interrupt48)?<code 339> (__Interrupt48):<code 339> (__DefaultInterrupt)
                  0x000076          0x4 LONG 0x1c596 DEFINED (__SI2C2Interrupt)?<code 339> (__SI2C2Interrupt):<code 339> (__DefaultInterrupt)
                  0x000078          0x4 LONG 0x1c596 DEFINED (__MI2C2Interrupt)?<code 339> (__MI2C2Interrupt):<code 339> (__DefaultInterrupt)
                  0x00007a          0x4 LONG 0x1c596 DEFINED (__Interrupt51)?<code 339> (__Interrupt51):<code 339> (__DefaultInterrupt)
                  0x00007c          0x4 LONG 0x1c596 DEFINED (__Interrupt52)?<code 339> (__Interrupt52):<code 339> (__DefaultInterrupt)
                  0x00007e          0x4 LONG 0x1c690 DEFINED (__INT3Interrupt)?<code 339> (__INT3Interrupt):<code 339> (__DefaultInterrupt)
                  0x000080          0x4 LONG 0x1c6b8 DEFINED (__INT4Interrupt)?<code 339> (__INT4Interrupt):<code 339> (__DefaultInterrupt)
                  0x000082          0x4 LONG 0x1c596 DEFINED (__Interrupt55)?<code 339> (__Interrupt55):<code 339> (__DefaultInterrupt)
                  0x000084          0x4 LONG 0x1c596 DEFINED (__Interrupt56)?<code 339> (__Interrupt56):<code 339> (__DefaultInterrupt)
                  0x000086          0x4 LONG 0x1c596 DEFINED (__Interrupt57)?<code 339> (__Interrupt57):<code 339> (__DefaultInterrupt)
                  0x000088          0x4 LONG 0x1c596 DEFINED (__Interrupt58)?<code 339> (__Interrupt58):<code 339> (__DefaultInterrupt)
                  0x00008a          0x4 LONG 0x1c596 DEFINED (__Interrupt59)?<code 339> (__Interrupt59):<code 339> (__DefaultInterrupt)
                  0x00008c          0x4 LONG 0x1c596 DEFINED (__Interrupt60)?<code 339> (__Interrupt60):<code 339> (__DefaultInterrupt)
                  0x00008e          0x4 LONG 0x1c596 DEFINED (__Interrupt61)?<code 339> (__Interrupt61):<code 339> (__DefaultInterrupt)
                  0x000090          0x4 LONG 0x1b618 DEFINED (__RTCCInterrupt)?<code 339> (__RTCCInterrupt):<code 339> (__DefaultInterrupt)
                  0x000092          0x4 LONG 0x1c596 DEFINED (__Interrupt63)?<code 339> (__Interrupt63):<code 339> (__DefaultInterrupt)
                  0x000094          0x4 LONG 0x1c596 DEFINED (__Interrupt64)?<code 339> (__Interrupt64):<code 339> (__DefaultInterrupt)
                  0x000096          0x4 LONG 0x1c596 DEFINED (__U1ErrInterrupt)?<code 339> (__U1ErrInterrupt):<code 339> (__DefaultInterrupt)
                  0x000098          0x4 LONG 0x1c596 DEFINED (__U2ErrInterrupt)?<code 339> (__U2ErrInterrupt):<code 339> (__DefaultInterrupt)
                  0x00009a          0x4 LONG 0x1c596 DEFINED (__CRCInterrupt)?<code 339> (__CRCInterrupt):<code 339> (__DefaultInterrupt)
                  0x00009c          0x4 LONG 0x1c596 DEFINED (__Interrupt68)?<code 339> (__Interrupt68):<code 339> (__DefaultInterrupt)
                  0x00009e          0x4 LONG 0x1c596 DEFINED (__Interrupt69)?<code 339> (__Interrupt69):<code 339> (__DefaultInterrupt)
                  0x0000a0          0x4 LONG 0x1c596 DEFINED (__Interrupt70)?<code 339> (__Interrupt70):<code 339> (__DefaultInterrupt)
                  0x0000a2          0x4 LONG 0x1c596 DEFINED (__Interrupt71)?<code 339> (__Interrupt71):<code 339> (__DefaultInterrupt)
                  0x0000a4          0x4 LONG 0x1c596 DEFINED (__LVDInterrupt)?<code 339> (__LVDInterrupt):<code 339> (__DefaultInterrupt)
                  0x0000a6          0x4 LONG 0x1c596 DEFINED (__Interrupt73)?<code 339> (__Interrupt73):<code 339> (__DefaultInterrupt)
                  0x0000a8          0x4 LONG 0x1c596 DEFINED (__Interrupt74)?<code 339> (__Interrupt74):<code 339> (__DefaultInterrupt)
                  0x0000aa          0x4 LONG 0x1c596 DEFINED (__Interrupt75)?<code 339> (__Interrupt75):<code 339> (__DefaultInterrupt)
                  0x0000ac          0x4 LONG 0x1c596 DEFINED (__Interrupt76)?<code 339> (__Interrupt76):<code 339> (__DefaultInterrupt)
                  0x0000ae          0x4 LONG 0x1c596 DEFINED (__CTMUInterrupt)?<code 339> (__CTMUInterrupt):<code 339> (__DefaultInterrupt)
                  0x0000b0          0x4 LONG 0x1c596 DEFINED (__Interrupt78)?<code 339> (__Interrupt78):<code 339> (__DefaultInterrupt)
                  0x0000b2          0x4 LONG 0x1c596 DEFINED (__Interrupt79)?<code 339> (__Interrupt79):<code 339> (__DefaultInterrupt)
                  0x0000b4          0x4 LONG 0x1c596 DEFINED (__Interrupt80)?<code 339> (__Interrupt80):<code 339> (__DefaultInterrupt)
                  0x0000b6          0x4 LONG 0x1c596 DEFINED (__U3ErrInterrupt)?<code 339> (__U3ErrInterrupt):<code 339> (__DefaultInterrupt)
                  0x0000b8          0x4 LONG 0x1c556 DEFINED (__U3RXInterrupt)?<code 339> (__U3RXInterrupt):<code 339> (__DefaultInterrupt)
                  0x0000ba          0x4 LONG 0x1c596 DEFINED (__U3TXInterrupt)?<code 339> (__U3TXInterrupt):<code 339> (__DefaultInterrupt)
                  0x0000bc          0x4 LONG 0x1c596 DEFINED (__SI2C3Interrupt)?<code 339> (__SI2C3Interrupt):<code 339> (__DefaultInterrupt)
                  0x0000be          0x4 LONG 0x1c596 DEFINED (__MI2C3Interrupt)?<code 339> (__MI2C3Interrupt):<code 339> (__DefaultInterrupt)
                  0x0000c0          0x4 LONG 0x1c596 DEFINED (__Interrupt86)?<code 339> (__Interrupt86):<code 339> (__DefaultInterrupt)
                  0x0000c2          0x4 LONG 0x1c596 DEFINED (__U4ErrInterrupt)?<code 339> (__U4ErrInterrupt):<code 339> (__DefaultInterrupt)
                  0x0000c4          0x4 LONG 0x1c576 DEFINED (__U4RXInterrupt)?<code 339> (__U4RXInterrupt):<code 339> (__DefaultInterrupt)
                  0x0000c6          0x4 LONG 0x1c596 DEFINED (__U4TXInterrupt)?<code 339> (__U4TXInterrupt):<code 339> (__DefaultInterrupt)
                  0x0000c8          0x4 LONG 0x1c596 DEFINED (__SPI3ErrInterrupt)?<code 339> (__SPI3ErrInterrupt):<code 339> (__DefaultInterrupt)
                  0x0000ca          0x4 LONG 0x1c596 DEFINED (__SPI3Interrupt)?<code 339> (__SPI3Interrupt):<code 339> (__DefaultInterrupt)
                  0x0000cc          0x4 LONG 0x1c596 DEFINED (__OC9Interrupt)?<code 339> (__OC9Interrupt):<code 339> (__DefaultInterrupt)
                  0x0000ce          0x4 LONG 0x1c596 DEFINED (__IC9Interrupt)?<code 339> (__IC9Interrupt):<code 339> (__DefaultInterrupt)
                  0x0000d0          0x4 LONG 0x1c596 DEFINED (__Interrupt94)?<code 339> (__Interrupt94):<code 339> (__DefaultInterrupt)
                  0x0000d2          0x4 LONG 0x1c596 DEFINED (__Interrupt95)?<code 339> (__Interrupt95):<code 339> (__DefaultInterrupt)
                  0x0000d4          0x4 LONG 0x1c596 DEFINED (__Interrupt96)?<code 339> (__Interrupt96):<code 339> (__DefaultInterrupt)
                  0x0000d6          0x4 LONG 0x1c596 DEFINED (__Interrupt97)?<code 339> (__Interrupt97):<code 339> (__DefaultInterrupt)
                  0x0000d8          0x4 LONG 0x1c596 DEFINED (__Interrupt98)?<code 339> (__Interrupt98):<code 339> (__DefaultInterrupt)
                  0x0000da          0x4 LONG 0x1c596 DEFINED (__Interrupt99)?<code 339> (__Interrupt99):<code 339> (__DefaultInterrupt)
                  0x0000dc          0x4 LONG 0x1c596 DEFINED (__Interrupt100)?<code 339> (__Interrupt100):<code 339> (__DefaultInterrupt)
                  0x0000de          0x4 LONG 0x1c596 DEFINED (__Interrupt101)?<code 339> (__Interrupt101):<code 339> (__DefaultInterrupt)
                  0x0000e0          0x4 LONG 0x1c596 DEFINED (__Interrupt102)?<code 339> (__Interrupt102):<code 339> (__DefaultInterrupt)
                  0x0000e2          0x4 LONG 0x1c596 DEFINED (__Interrupt103)?<code 339> (__Interrupt103):<code 339> (__DefaultInterrupt)
                  0x0000e4          0x4 LONG 0x1c596 DEFINED (__Interrupt104)?<code 339> (__Interrupt104):<code 339> (__DefaultInterrupt)
                  0x0000e6          0x4 LONG 0x1c596 DEFINED (__Interrupt105)?<code 339> (__Interrupt105):<code 339> (__DefaultInterrupt)
                  0x0000e8          0x4 LONG 0x1c596 DEFINED (__Interrupt106)?<code 339> (__Interrupt106):<code 339> (__DefaultInterrupt)
                  0x0000ea          0x4 LONG 0x1c596 DEFINED (__Interrupt107)?<code 339> (__Interrupt107):<code 339> (__DefaultInterrupt)
                  0x0000ec          0x4 LONG 0x1c596 DEFINED (__Interrupt108)?<code 339> (__Interrupt108):<code 339> (__DefaultInterrupt)
                  0x0000ee          0x4 LONG 0x1c596 DEFINED (__Interrupt109)?<code 339> (__Interrupt109):<code 339> (__DefaultInterrupt)
                  0x0000f0          0x4 LONG 0x1c596 DEFINED (__Interrupt110)?<code 339> (__Interrupt110):<code 339> (__DefaultInterrupt)
                  0x0000f2          0x4 LONG 0x1c596 DEFINED (__Interrupt111)?<code 339> (__Interrupt111):<code 339> (__DefaultInterrupt)
                  0x0000f4          0x4 LONG 0x1c596 DEFINED (__Interrupt112)?<code 339> (__Interrupt112):<code 339> (__DefaultInterrupt)
                  0x0000f6          0x4 LONG 0x1c596 DEFINED (__Interrupt113)?<code 339> (__Interrupt113):<code 339> (__DefaultInterrupt)
                  0x0000f8          0x4 LONG 0x1c596 DEFINED (__Interrupt114)?<code 339> (__Interrupt114):<code 339> (__DefaultInterrupt)
                  0x0000fa          0x4 LONG 0x1c596 DEFINED (__Interrupt115)?<code 339> (__Interrupt115):<code 339> (__DefaultInterrupt)
                  0x0000fc          0x4 LONG 0x1c596 DEFINED (__Interrupt116)?<code 339> (__Interrupt116):<code 339> (__DefaultInterrupt)
                  0x0000fe          0x4 LONG 0x1c596 DEFINED (__Interrupt117)?<code 339> (__Interrupt117):<code 339> (__DefaultInterrupt)

.aivt             0x000104         0xfc
                  0x000104          0x4 LONG 0x1c596 DEFINED (__AltReservedTrap0)?<code 339> (__AltReservedTrap0):DEFINED (__ReservedTrap0)?<code 339> (__ReservedTrap0):<code 339> (__DefaultInterrupt)
                  0x000106          0x4 LONG 0x1c5c0 DEFINED (__AltOscillatorFail)?<code 339> (__AltOscillatorFail):DEFINED (__OscillatorFail)?<code 339> (__OscillatorFail):<code 339> (__DefaultInterrupt)
                  0x000108          0x4 LONG 0x1c5ea DEFINED (__AltAddressError)?<code 339> (__AltAddressError):DEFINED (__AddressError)?<code 339> (__AddressError):<code 339> (__DefaultInterrupt)
                  0x00010a          0x4 LONG 0x1c614 DEFINED (__AltStackError)?<code 339> (__AltStackError):DEFINED (__StackError)?<code 339> (__StackError):<code 339> (__DefaultInterrupt)
                  0x00010c          0x4 LONG 0x1c63e DEFINED (__AltMathError)?<code 339> (__AltMathError):DEFINED (__MathError)?<code 339> (__MathError):<code 339> (__DefaultInterrupt)
                  0x00010e          0x4 LONG 0x1c596 DEFINED (__AltReservedTrap5)?<code 339> (__AltReservedTrap5):DEFINED (__ReservedTrap5)?<code 339> (__ReservedTrap5):<code 339> (__DefaultInterrupt)
                  0x000110          0x4 LONG 0x1c596 DEFINED (__AltReservedTrap6)?<code 339> (__AltReservedTrap6):DEFINED (__ReservedTrap6)?<code 339> (__ReservedTrap6):<code 339> (__DefaultInterrupt)
                  0x000112          0x4 LONG 0x1c596 DEFINED (__AltReservedTrap7)?<code 339> (__AltReservedTrap7):DEFINED (__ReservedTrap7)?<code 339> (__ReservedTrap7):<code 339> (__DefaultInterrupt)
                  0x000114          0x4 LONG 0x1c596 DEFINED (__AltINT0Interrupt)?<code 339> (__AltINT0Interrupt):DEFINED (__INT0Interrupt)?<code 339> (__INT0Interrupt):<code 339> (__DefaultInterrupt)
                  0x000116          0x4 LONG 0x1c596 DEFINED (__AltIC1Interrupt)?<code 339> (__AltIC1Interrupt):DEFINED (__IC1Interrupt)?<code 339> (__IC1Interrupt):<code 339> (__DefaultInterrupt)
                  0x000118          0x4 LONG 0x1c596 DEFINED (__AltOC1Interrupt)?<code 339> (__AltOC1Interrupt):DEFINED (__OC1Interrupt)?<code 339> (__OC1Interrupt):<code 339> (__DefaultInterrupt)
                  0x00011a          0x4 LONG 0x1d0d6 DEFINED (__AltT1Interrupt)?<code 339> (__AltT1Interrupt):DEFINED (__T1Interrupt)?<code 339> (__T1Interrupt):<code 339> (__DefaultInterrupt)
                  0x00011c          0x4 LONG 0x1c596 DEFINED (__AltInterrupt4)?<code 339> (__AltInterrupt4):DEFINED (__Interrupt4)?<code 339> (__Interrupt4):<code 339> (__DefaultInterrupt)
                  0x00011e          0x4 LONG 0x1c596 DEFINED (__AltIC2Interrupt)?<code 339> (__AltIC2Interrupt):DEFINED (__IC2Interrupt)?<code 339> (__IC2Interrupt):<code 339> (__DefaultInterrupt)
                  0x000120          0x4 LONG 0x1c596 DEFINED (__AltOC2Interrupt)?<code 339> (__AltOC2Interrupt):DEFINED (__OC2Interrupt)?<code 339> (__OC2Interrupt):<code 339> (__DefaultInterrupt)
                  0x000122          0x4 LONG 0x1c596 DEFINED (__AltT2Interrupt)?<code 339> (__AltT2Interrupt):DEFINED (__T2Interrupt)?<code 339> (__T2Interrupt):<code 339> (__DefaultInterrupt)
                  0x000124          0x4 LONG 0x1c596 DEFINED (__AltT3Interrupt)?<code 339> (__AltT3Interrupt):DEFINED (__T3Interrupt)?<code 339> (__T3Interrupt):<code 339> (__DefaultInterrupt)
                  0x000126          0x4 LONG 0x1c596 DEFINED (__AltSPI1ErrInterrupt)?<code 339> (__AltSPI1ErrInterrupt):DEFINED (__SPI1ErrInterrupt)?<code 339> (__SPI1ErrInterrupt):<code 339> (__DefaultInterrupt)
                  0x000128          0x4 LONG 0x1c596 DEFINED (__AltSPI1Interrupt)?<code 339> (__AltSPI1Interrupt):DEFINED (__SPI1Interrupt)?<code 339> (__SPI1Interrupt):<code 339> (__DefaultInterrupt)
                  0x00012a          0x4 LONG 0x1c516 DEFINED (__AltU1RXInterrupt)?<code 339> (__AltU1RXInterrupt):DEFINED (__U1RXInterrupt)?<code 339> (__U1RXInterrupt):<code 339> (__DefaultInterrupt)
                  0x00012c          0x4 LONG 0x1c596 DEFINED (__AltU1TXInterrupt)?<code 339> (__AltU1TXInterrupt):DEFINED (__U1TXInterrupt)?<code 339> (__U1TXInterrupt):<code 339> (__DefaultInterrupt)
                  0x00012e          0x4 LONG 0xc348 DEFINED (__AltADC1Interrupt)?<code 339> (__AltADC1Interrupt):DEFINED (__ADC1Interrupt)?<code 339> (__ADC1Interrupt):<code 339> (__DefaultInterrupt)
                  0x000130          0x4 LONG 0x1c596 DEFINED (__AltInterrupt14)?<code 339> (__AltInterrupt14):DEFINED (__Interrupt14)?<code 339> (__Interrupt14):<code 339> (__DefaultInterrupt)
                  0x000132          0x4 LONG 0x1c596 DEFINED (__AltInterrupt15)?<code 339> (__AltInterrupt15):DEFINED (__Interrupt15)?<code 339> (__Interrupt15):<code 339> (__DefaultInterrupt)
                  0x000134          0x4 LONG 0x1c596 DEFINED (__AltSI2C1Interrupt)?<code 339> (__AltSI2C1Interrupt):DEFINED (__SI2C1Interrupt)?<code 339> (__SI2C1Interrupt):<code 339> (__DefaultInterrupt)
                  0x000136          0x4 LONG 0x1c596 DEFINED (__AltMI2C1Interrupt)?<code 339> (__AltMI2C1Interrupt):DEFINED (__MI2C1Interrupt)?<code 339> (__MI2C1Interrupt):<code 339> (__DefaultInterrupt)
                  0x000138          0x4 LONG 0x1c596 DEFINED (__AltCompInterrupt)?<code 339> (__AltCompInterrupt):DEFINED (__CompInterrupt)?<code 339> (__CompInterrupt):<code 339> (__DefaultInterrupt)
                  0x00013a          0x4 LONG 0x1c596 DEFINED (__AltCNInterrupt)?<code 339> (__AltCNInterrupt):DEFINED (__CNInterrupt)?<code 339> (__CNInterrupt):<code 339> (__DefaultInterrupt)
                  0x00013c          0x4 LONG 0x1dd4c DEFINED (__AltINT1Interrupt)?<code 339> (__AltINT1Interrupt):DEFINED (__INT1Interrupt)?<code 339> (__INT1Interrupt):<code 339> (__DefaultInterrupt)
                  0x00013e          0x4 LONG 0x1c596 DEFINED (__AltInterrupt21)?<code 339> (__AltInterrupt21):DEFINED (__Interrupt21)?<code 339> (__Interrupt21):<code 339> (__DefaultInterrupt)
                  0x000140          0x4 LONG 0x1c596 DEFINED (__AltIC7Interrupt)?<code 339> (__AltIC7Interrupt):DEFINED (__IC7Interrupt)?<code 339> (__IC7Interrupt):<code 339> (__DefaultInterrupt)
                  0x000142          0x4 LONG 0x1c596 DEFINED (__AltIC8Interrupt)?<code 339> (__AltIC8Interrupt):DEFINED (__IC8Interrupt)?<code 339> (__IC8Interrupt):<code 339> (__DefaultInterrupt)
                  0x000144          0x4 LONG 0x1c596 DEFINED (__AltInterrupt24)?<code 339> (__AltInterrupt24):DEFINED (__Interrupt24)?<code 339> (__Interrupt24):<code 339> (__DefaultInterrupt)
                  0x000146          0x4 LONG 0x1c596 DEFINED (__AltOC3Interrupt)?<code 339> (__AltOC3Interrupt):DEFINED (__OC3Interrupt)?<code 339> (__OC3Interrupt):<code 339> (__DefaultInterrupt)
                  0x000148          0x4 LONG 0x1c596 DEFINED (__AltOC4Interrupt)?<code 339> (__AltOC4Interrupt):DEFINED (__OC4Interrupt)?<code 339> (__OC4Interrupt):<code 339> (__DefaultInterrupt)
                  0x00014a          0x4 LONG 0x1c596 DEFINED (__AltT4Interrupt)?<code 339> (__AltT4Interrupt):DEFINED (__T4Interrupt)?<code 339> (__T4Interrupt):<code 339> (__DefaultInterrupt)
                  0x00014c          0x4 LONG 0x1ce52 DEFINED (__AltT5Interrupt)?<code 339> (__AltT5Interrupt):DEFINED (__T5Interrupt)?<code 339> (__T5Interrupt):<code 339> (__DefaultInterrupt)
                  0x00014e          0x4 LONG 0x1c668 DEFINED (__AltINT2Interrupt)?<code 339> (__AltINT2Interrupt):DEFINED (__INT2Interrupt)?<code 339> (__INT2Interrupt):<code 339> (__DefaultInterrupt)
                  0x000150          0x4 LONG 0x1c536 DEFINED (__AltU2RXInterrupt)?<code 339> (__AltU2RXInterrupt):DEFINED (__U2RXInterrupt)?<code 339> (__U2RXInterrupt):<code 339> (__DefaultInterrupt)
                  0x000152          0x4 LONG 0x1c596 DEFINED (__AltU2TXInterrupt)?<code 339> (__AltU2TXInterrupt):DEFINED (__U2TXInterrupt)?<code 339> (__U2TXInterrupt):<code 339> (__DefaultInterrupt)
                  0x000154          0x4 LONG 0x1c596 DEFINED (__AltSPI2ErrInterrupt)?<code 339> (__AltSPI2ErrInterrupt):DEFINED (__SPI2ErrInterrupt)?<code 339> (__SPI2ErrInterrupt):<code 339> (__DefaultInterrupt)
                  0x000156          0x4 LONG 0x1c596 DEFINED (__AltSPI2Interrupt)?<code 339> (__AltSPI2Interrupt):DEFINED (__SPI2Interrupt)?<code 339> (__SPI2Interrupt):<code 339> (__DefaultInterrupt)
                  0x000158          0x4 LONG 0x1c596 DEFINED (__AltInterrupt34)?<code 339> (__AltInterrupt34):DEFINED (__Interrupt34)?<code 339> (__Interrupt34):<code 339> (__DefaultInterrupt)
                  0x00015a          0x4 LONG 0x1c596 DEFINED (__AltInterrupt35)?<code 339> (__AltInterrupt35):DEFINED (__Interrupt35)?<code 339> (__Interrupt35):<code 339> (__DefaultInterrupt)
                  0x00015c          0x4 LONG 0x1c596 DEFINED (__AltInterrupt36)?<code 339> (__AltInterrupt36):DEFINED (__Interrupt36)?<code 339> (__Interrupt36):<code 339> (__DefaultInterrupt)
                  0x00015e          0x4 LONG 0x1c596 DEFINED (__AltIC3Interrupt)?<code 339> (__AltIC3Interrupt):DEFINED (__IC3Interrupt)?<code 339> (__IC3Interrupt):<code 339> (__DefaultInterrupt)
                  0x000160          0x4 LONG 0x1c596 DEFINED (__AltIC4Interrupt)?<code 339> (__AltIC4Interrupt):DEFINED (__IC4Interrupt)?<code 339> (__IC4Interrupt):<code 339> (__DefaultInterrupt)
                  0x000162          0x4 LONG 0x1c596 DEFINED (__AltIC5Interrupt)?<code 339> (__AltIC5Interrupt):DEFINED (__IC5Interrupt)?<code 339> (__IC5Interrupt):<code 339> (__DefaultInterrupt)
                  0x000164          0x4 LONG 0x1c596 DEFINED (__AltIC6Interrupt)?<code 339> (__AltIC6Interrupt):DEFINED (__IC6Interrupt)?<code 339> (__IC6Interrupt):<code 339> (__DefaultInterrupt)
                  0x000166          0x4 LONG 0x1c596 DEFINED (__AltOC5Interrupt)?<code 339> (__AltOC5Interrupt):DEFINED (__OC5Interrupt)?<code 339> (__OC5Interrupt):<code 339> (__DefaultInterrupt)
                  0x000168          0x4 LONG 0x1c596 DEFINED (__AltOC6Interrupt)?<code 339> (__AltOC6Interrupt):DEFINED (__OC6Interrupt)?<code 339> (__OC6Interrupt):<code 339> (__DefaultInterrupt)
                  0x00016a          0x4 LONG 0x1c596 DEFINED (__AltOC7Interrupt)?<code 339> (__AltOC7Interrupt):DEFINED (__OC7Interrupt)?<code 339> (__OC7Interrupt):<code 339> (__DefaultInterrupt)
                  0x00016c          0x4 LONG 0x1c596 DEFINED (__AltOC8Interrupt)?<code 339> (__AltOC8Interrupt):DEFINED (__OC8Interrupt)?<code 339> (__OC8Interrupt):<code 339> (__DefaultInterrupt)
                  0x00016e          0x4 LONG 0x1c596 DEFINED (__AltPMPInterrupt)?<code 339> (__AltPMPInterrupt):DEFINED (__PMPInterrupt)?<code 339> (__PMPInterrupt):<code 339> (__DefaultInterrupt)
                  0x000170          0x4 LONG 0x1c596 DEFINED (__AltInterrupt46)?<code 339> (__AltInterrupt46):DEFINED (__Interrupt46)?<code 339> (__Interrupt46):<code 339> (__DefaultInterrupt)
                  0x000172          0x4 LONG 0x1c596 DEFINED (__AltInterrupt47)?<code 339> (__AltInterrupt47):DEFINED (__Interrupt47)?<code 339> (__Interrupt47):<code 339> (__DefaultInterrupt)
                  0x000174          0x4 LONG 0x1c596 DEFINED (__AltInterrupt48)?<code 339> (__AltInterrupt48):DEFINED (__Interrupt48)?<code 339> (__Interrupt48):<code 339> (__DefaultInterrupt)
                  0x000176          0x4 LONG 0x1c596 DEFINED (__AltSI2C2Interrupt)?<code 339> (__AltSI2C2Interrupt):DEFINED (__SI2C2Interrupt)?<code 339> (__SI2C2Interrupt):<code 339> (__DefaultInterrupt)
                  0x000178          0x4 LONG 0x1c596 DEFINED (__AltMI2C2Interrupt)?<code 339> (__AltMI2C2Interrupt):DEFINED (__MI2C2Interrupt)?<code 339> (__MI2C2Interrupt):<code 339> (__DefaultInterrupt)
                  0x00017a          0x4 LONG 0x1c596 DEFINED (__AltInterrupt51)?<code 339> (__AltInterrupt51):DEFINED (__Interrupt51)?<code 339> (__Interrupt51):<code 339> (__DefaultInterrupt)
                  0x00017c          0x4 LONG 0x1c596 DEFINED (__AltInterrupt52)?<code 339> (__AltInterrupt52):DEFINED (__Interrupt52)?<code 339> (__Interrupt52):<code 339> (__DefaultInterrupt)
                  0x00017e          0x4 LONG 0x1c690 DEFINED (__AltINT3Interrupt)?<code 339> (__AltINT3Interrupt):DEFINED (__INT3Interrupt)?<code 339> (__INT3Interrupt):<code 339> (__DefaultInterrupt)
                  0x000180          0x4 LONG 0x1c6b8 DEFINED (__AltINT4Interrupt)?<code 339> (__AltINT4Interrupt):DEFINED (__INT4Interrupt)?<code 339> (__INT4Interrupt):<code 339> (__DefaultInterrupt)
                  0x000182          0x4 LONG 0x1c596 DEFINED (__AltInterrupt55)?<code 339> (__AltInterrupt55):DEFINED (__Interrupt55)?<code 339> (__Interrupt55):<code 339> (__DefaultInterrupt)
                  0x000184          0x4 LONG 0x1c596 DEFINED (__AltInterrupt56)?<code 339> (__AltInterrupt56):DEFINED (__Interrupt56)?<code 339> (__Interrupt56):<code 339> (__DefaultInterrupt)
                  0x000186          0x4 LONG 0x1c596 DEFINED (__AltInterrupt57)?<code 339> (__AltInterrupt57):DEFINED (__Interrupt57)?<code 339> (__Interrupt57):<code 339> (__DefaultInterrupt)
                  0x000188          0x4 LONG 0x1c596 DEFINED (__AltInterrupt58)?<code 339> (__AltInterrupt58):DEFINED (__Interrupt58)?<code 339> (__Interrupt58):<code 339> (__DefaultInterrupt)
                  0x00018a          0x4 LONG 0x1c596 DEFINED (__AltInterrupt59)?<code 339> (__AltInterrupt59):DEFINED (__Interrupt59)?<code 339> (__Interrupt59):<code 339> (__DefaultInterrupt)
                  0x00018c          0x4 LONG 0x1c596 DEFINED (__AltInterrupt60)?<code 339> (__AltInterrupt60):DEFINED (__Interrupt60)?<code 339> (__Interrupt60):<code 339> (__DefaultInterrupt)
                  0x00018e          0x4 LONG 0x1c596 DEFINED (__AltInterrupt61)?<code 339> (__AltInterrupt61):DEFINED (__Interrupt61)?<code 339> (__Interrupt61):<code 339> (__DefaultInterrupt)
                  0x000190          0x4 LONG 0x1b618 DEFINED (__AltRTCCInterrupt)?<code 339> (__AltRTCCInterrupt):DEFINED (__RTCCInterrupt)?<code 339> (__RTCCInterrupt):<code 339> (__DefaultInterrupt)
                  0x000192          0x4 LONG 0x1c596 DEFINED (__AltInterrupt63)?<code 339> (__AltInterrupt63):DEFINED (__Interrupt63)?<code 339> (__Interrupt63):<code 339> (__DefaultInterrupt)
                  0x000194          0x4 LONG 0x1c596 DEFINED (__AltInterrupt64)?<code 339> (__AltInterrupt64):DEFINED (__Interrupt64)?<code 339> (__Interrupt64):<code 339> (__DefaultInterrupt)
                  0x000196          0x4 LONG 0x1c596 DEFINED (__AltU1ErrInterrupt)?<code 339> (__AltU1ErrInterrupt):DEFINED (__U1ErrInterrupt)?<code 339> (__U1ErrInterrupt):<code 339> (__DefaultInterrupt)
                  0x000198          0x4 LONG 0x1c596 DEFINED (__AltU2ErrInterrupt)?<code 339> (__AltU2ErrInterrupt):DEFINED (__U2ErrInterrupt)?<code 339> (__U2ErrInterrupt):<code 339> (__DefaultInterrupt)
                  0x00019a          0x4 LONG 0x1c596 DEFINED (__AltCRCInterrupt)?<code 339> (__AltCRCInterrupt):DEFINED (__CRCInterrupt)?<code 339> (__CRCInterrupt):<code 339> (__DefaultInterrupt)
                  0x00019c          0x4 LONG 0x1c596 DEFINED (__AltInterrupt68)?<code 339> (__AltInterrupt68):DEFINED (__Interrupt68)?<code 339> (__Interrupt68):<code 339> (__DefaultInterrupt)
                  0x00019e          0x4 LONG 0x1c596 DEFINED (__AltInterrupt69)?<code 339> (__AltInterrupt69):DEFINED (__Interrupt69)?<code 339> (__Interrupt69):<code 339> (__DefaultInterrupt)
                  0x0001a0          0x4 LONG 0x1c596 DEFINED (__AltInterrupt70)?<code 339> (__AltInterrupt70):DEFINED (__Interrupt70)?<code 339> (__Interrupt70):<code 339> (__DefaultInterrupt)
                  0x0001a2          0x4 LONG 0x1c596 DEFINED (__AltInterrupt71)?<code 339> (__AltInterrupt71):DEFINED (__Interrupt71)?<code 339> (__Interrupt71):<code 339> (__DefaultInterrupt)
                  0x0001a4          0x4 LONG 0x1c596 DEFINED (__AltLVDInterrupt)?<code 339> (__AltLVDInterrupt):DEFINED (__LVDInterrupt)?<code 339> (__LVDInterrupt):<code 339> (__DefaultInterrupt)
                  0x0001a6          0x4 LONG 0x1c596 DEFINED (__AltInterrupt73)?<code 339> (__AltInterrupt73):DEFINED (__Interrupt73)?<code 339> (__Interrupt73):<code 339> (__DefaultInterrupt)
                  0x0001a8          0x4 LONG 0x1c596 DEFINED (__AltInterrupt74)?<code 339> (__AltInterrupt74):DEFINED (__Interrupt74)?<code 339> (__Interrupt74):<code 339> (__DefaultInterrupt)
                  0x0001aa          0x4 LONG 0x1c596 DEFINED (__AltInterrupt75)?<code 339> (__AltInterrupt75):DEFINED (__Interrupt75)?<code 339> (__Interrupt75):<code 339> (__DefaultInterrupt)
                  0x0001ac          0x4 LONG 0x1c596 DEFINED (__AltInterrupt76)?<code 339> (__AltInterrupt76):DEFINED (__Interrupt76)?<code 339> (__Interrupt76):<code 339> (__DefaultInterrupt)
                  0x0001ae          0x4 LONG 0x1c596 DEFINED (__AltCTMUInterrupt)?<code 339> (__AltCTMUInterrupt):DEFINED (__CTMUInterrupt)?<code 339> (__CTMUInterrupt):<code 339> (__DefaultInterrupt)
                  0x0001b0          0x4 LONG 0x1c596 DEFINED (__AltInterrupt78)?<code 339> (__AltInterrupt78):DEFINED (__Interrupt78)?<code 339> (__Interrupt78):<code 339> (__DefaultInterrupt)
                  0x0001b2          0x4 LONG 0x1c596 DEFINED (__AltInterrupt79)?<code 339> (__AltInterrupt79):DEFINED (__Interrupt79)?<code 339> (__Interrupt79):<code 339> (__DefaultInterrupt)
                  0x0001b4          0x4 LONG 0x1c596 DEFINED (__AltInterrupt80)?<code 339> (__AltInterrupt80):DEFINED (__Interrupt80)?<code 339> (__Interrupt80):<code 339> (__DefaultInterrupt)
                  0x0001b6          0x4 LONG 0x1c596 DEFINED (__AltU3ErrInterrupt)?<code 339> (__AltU3ErrInterrupt):DEFINED (__U3ErrInterrupt)?<code 339> (__U3ErrInterrupt):<code 339> (__DefaultInterrupt)
                  0x0001b8          0x4 LONG 0x1c556 DEFINED (__AltU3RXInterrupt)?<code 339> (__AltU3RXInterrupt):DEFINED (__U3RXInterrupt)?<code 339> (__U3RXInterrupt):<code 339> (__DefaultInterrupt)
                  0x0001ba          0x4 LONG 0x1c596 DEFINED (__AltU3TXInterrupt)?<code 339> (__AltU3TXInterrupt):DEFINED (__U3TXInterrupt)?<code 339> (__U3TXInterrupt):<code 339> (__DefaultInterrupt)
                  0x0001bc          0x4 LONG 0x1c596 DEFINED (__AltSI2C3Interrupt)?<code 339> (__AltSI2C3Interrupt):DEFINED (__SI2C3Interrupt)?<code 339> (__SI2C3Interrupt):<code 339> (__DefaultInterrupt)
                  0x0001be          0x4 LONG 0x1c596 DEFINED (__AltMI2C3Interrupt)?<code 339> (__AltMI2C3Interrupt):DEFINED (__MI2C3Interrupt)?<code 339> (__MI2C3Interrupt):<code 339> (__DefaultInterrupt)
                  0x0001c0          0x4 LONG 0x1c596 DEFINED (__AltInterrupt86)?<code 339> (__AltInterrupt86):DEFINED (__Interrupt86)?<code 339> (__Interrupt86):<code 339> (__DefaultInterrupt)
                  0x0001c2          0x4 LONG 0x1c596 DEFINED (__AltU4ErrInterrupt)?<code 339> (__AltU4ErrInterrupt):DEFINED (__U4ErrInterrupt)?<code 339> (__U4ErrInterrupt):<code 339> (__DefaultInterrupt)
                  0x0001c4          0x4 LONG 0x1c576 DEFINED (__AltU4RXInterrupt)?<code 339> (__AltU4RXInterrupt):DEFINED (__U4RXInterrupt)?<code 339> (__U4RXInterrupt):<code 339> (__DefaultInterrupt)
                  0x0001c6          0x4 LONG 0x1c596 DEFINED (__AltU4TXInterrupt)?<code 339> (__AltU4TXInterrupt):DEFINED (__U4TXInterrupt)?<code 339> (__U4TXInterrupt):<code 339> (__DefaultInterrupt)
                  0x0001c8          0x4 LONG 0x1c596 DEFINED (__AltSPI3ErrInterrupt)?<code 339> (__AltSPI3ErrInterrupt):DEFINED (__SPI3ErrInterrupt)?<code 339> (__SPI3ErrInterrupt):<code 339> (__DefaultInterrupt)
                  0x0001ca          0x4 LONG 0x1c596 DEFINED (__AltSPI3Interrupt)?<code 339> (__AltSPI3Interrupt):DEFINED (__SPI3Interrupt)?<code 339> (__SPI3Interrupt):<code 339> (__DefaultInterrupt)
                  0x0001cc          0x4 LONG 0x1c596 DEFINED (__AltOC9Interrupt)?<code 339> (__AltOC9Interrupt):DEFINED (__OC9Interrupt)?<code 339> (__OC9Interrupt):<code 339> (__DefaultInterrupt)
                  0x0001ce          0x4 LONG 0x1c596 DEFINED (__AltIC9Interrupt)?<code 339> (__AltIC9Interrupt):DEFINED (__IC9Interrupt)?<code 339> (__IC9Interrupt):<code 339> (__DefaultInterrupt)
                  0x0001d0          0x4 LONG 0x1c596 DEFINED (__AltInterrupt94)?<code 339> (__AltInterrupt94):DEFINED (__Interrupt94)?<code 339> (__Interrupt94):<code 339> (__DefaultInterrupt)
                  0x0001d2          0x4 LONG 0x1c596 DEFINED (__AltInterrupt95)?<code 339> (__AltInterrupt95):DEFINED (__Interrupt95)?<code 339> (__Interrupt95):<code 339> (__DefaultInterrupt)
                  0x0001d4          0x4 LONG 0x1c596 DEFINED (__AltInterrupt96)?<code 339> (__AltInterrupt96):DEFINED (__Interrupt96)?<code 339> (__Interrupt96):<code 339> (__DefaultInterrupt)
                  0x0001d6          0x4 LONG 0x1c596 DEFINED (__AltInterrupt97)?<code 339> (__AltInterrupt97):DEFINED (__Interrupt97)?<code 339> (__Interrupt97):<code 339> (__DefaultInterrupt)
                  0x0001d8          0x4 LONG 0x1c596 DEFINED (__AltInterrupt98)?<code 339> (__AltInterrupt98):DEFINED (__Interrupt98)?<code 339> (__Interrupt98):<code 339> (__DefaultInterrupt)
                  0x0001da          0x4 LONG 0x1c596 DEFINED (__AltInterrupt99)?<code 339> (__AltInterrupt99):DEFINED (__Interrupt99)?<code 339> (__Interrupt99):<code 339> (__DefaultInterrupt)
                  0x0001dc          0x4 LONG 0x1c596 DEFINED (__AltInterrupt100)?<code 339> (__AltInterrupt100):DEFINED (__Interrupt100)?<code 339> (__Interrupt100):<code 339> (__DefaultInterrupt)
                  0x0001de          0x4 LONG 0x1c596 DEFINED (__AltInterrupt101)?<code 339> (__AltInterrupt101):DEFINED (__Interrupt101)?<code 339> (__Interrupt101):<code 339> (__DefaultInterrupt)
                  0x0001e0          0x4 LONG 0x1c596 DEFINED (__AltInterrupt102)?<code 339> (__AltInterrupt102):DEFINED (__Interrupt102)?<code 339> (__Interrupt102):<code 339> (__DefaultInterrupt)
                  0x0001e2          0x4 LONG 0x1c596 DEFINED (__AltInterrupt103)?<code 339> (__AltInterrupt103):DEFINED (__Interrupt103)?<code 339> (__Interrupt103):<code 339> (__DefaultInterrupt)
                  0x0001e4          0x4 LONG 0x1c596 DEFINED (__AltInterrupt104)?<code 339> (__AltInterrupt104):DEFINED (__Interrupt104)?<code 339> (__Interrupt104):<code 339> (__DefaultInterrupt)
                  0x0001e6          0x4 LONG 0x1c596 DEFINED (__AltInterrupt105)?<code 339> (__AltInterrupt105):DEFINED (__Interrupt105)?<code 339> (__Interrupt105):<code 339> (__DefaultInterrupt)
                  0x0001e8          0x4 LONG 0x1c596 DEFINED (__AltInterrupt106)?<code 339> (__AltInterrupt106):DEFINED (__Interrupt106)?<code 339> (__Interrupt106):<code 339> (__DefaultInterrupt)
                  0x0001ea          0x4 LONG 0x1c596 DEFINED (__AltInterrupt107)?<code 339> (__AltInterrupt107):DEFINED (__Interrupt107)?<code 339> (__Interrupt107):<code 339> (__DefaultInterrupt)
                  0x0001ec          0x4 LONG 0x1c596 DEFINED (__AltInterrupt108)?<code 339> (__AltInterrupt108):DEFINED (__Interrupt108)?<code 339> (__Interrupt108):<code 339> (__DefaultInterrupt)
                  0x0001ee          0x4 LONG 0x1c596 DEFINED (__AltInterrupt109)?<code 339> (__AltInterrupt109):DEFINED (__Interrupt109)?<code 339> (__Interrupt109):<code 339> (__DefaultInterrupt)
                  0x0001f0          0x4 LONG 0x1c596 DEFINED (__AltInterrupt110)?<code 339> (__AltInterrupt110):DEFINED (__Interrupt110)?<code 339> (__Interrupt110):<code 339> (__DefaultInterrupt)
                  0x0001f2          0x4 LONG 0x1c596 DEFINED (__AltInterrupt111)?<code 339> (__AltInterrupt111):DEFINED (__Interrupt111)?<code 339> (__Interrupt111):<code 339> (__DefaultInterrupt)
                  0x0001f4          0x4 LONG 0x1c596 DEFINED (__AltInterrupt112)?<code 339> (__AltInterrupt112):DEFINED (__Interrupt112)?<code 339> (__Interrupt112):<code 339> (__DefaultInterrupt)
                  0x0001f6          0x4 LONG 0x1c596 DEFINED (__AltInterrupt113)?<code 339> (__AltInterrupt113):DEFINED (__Interrupt113)?<code 339> (__Interrupt113):<code 339> (__DefaultInterrupt)
                  0x0001f8          0x4 LONG 0x1c596 DEFINED (__AltInterrupt114)?<code 339> (__AltInterrupt114):DEFINED (__Interrupt114)?<code 339> (__Interrupt114):<code 339> (__DefaultInterrupt)
                  0x0001fa          0x4 LONG 0x1c596 DEFINED (__AltInterrupt115)?<code 339> (__AltInterrupt115):DEFINED (__Interrupt115)?<code 339> (__Interrupt115):<code 339> (__DefaultInterrupt)
                  0x0001fc          0x4 LONG 0x1c596 DEFINED (__AltInterrupt116)?<code 339> (__AltInterrupt116):DEFINED (__Interrupt116)?<code 339> (__Interrupt116):<code 339> (__DefaultInterrupt)
                  0x0001fe          0x4 LONG 0x1c596 DEFINED (__AltInterrupt117)?<code 339> (__AltInterrupt117):DEFINED (__Interrupt117)?<code 339> (__Interrupt117):<code 339> (__DefaultInterrupt)
                    0x0000                  WREG0 = 0x0
                    0x0000                  _WREG0 = 0x0
                    0x0002                  WREG1 = 0x2
                    0x0002                  _WREG1 = 0x2
                    0x0004                  WREG2 = 0x4
                    0x0004                  _WREG2 = 0x4
                    0x0006                  WREG3 = 0x6
                    0x0006                  _WREG3 = 0x6
                    0x0008                  WREG4 = 0x8
                    0x0008                  _WREG4 = 0x8
                    0x000a                  WREG5 = 0xa
                    0x000a                  _WREG5 = 0xa
                    0x000c                  WREG6 = 0xc
                    0x000c                  _WREG6 = 0xc
                    0x000e                  WREG7 = 0xe
                    0x000e                  _WREG7 = 0xe
                    0x0010                  WREG8 = 0x10
                    0x0010                  _WREG8 = 0x10
                    0x0012                  WREG9 = 0x12
                    0x0012                  _WREG9 = 0x12
                    0x0014                  WREG10 = 0x14
                    0x0014                  _WREG10 = 0x14
                    0x0016                  WREG11 = 0x16
                    0x0016                  _WREG11 = 0x16
                    0x0018                  WREG12 = 0x18
                    0x0018                  _WREG12 = 0x18
                    0x001a                  WREG13 = 0x1a
                    0x001a                  _WREG13 = 0x1a
                    0x001c                  WREG14 = 0x1c
                    0x001c                  _WREG14 = 0x1c
                    0x001e                  WREG15 = 0x1e
                    0x001e                  _WREG15 = 0x1e
                    0x0020                  SPLIM = 0x20
                    0x0020                  _SPLIM = 0x20
                    0x002e                  PCL = 0x2e
                    0x002e                  _PCL = 0x2e
                    0x0030                  PCH = 0x30
                    0x0030                  _PCH = 0x30
                    0x0032                  TBLPAG = 0x32
                    0x0032                  _TBLPAG = 0x32
                    0x0034                  PSVPAG = 0x34
                    0x0034                  _PSVPAG = 0x34
                    0x0036                  RCOUNT = 0x36
                    0x0036                  _RCOUNT = 0x36
                    0x0042                  SR = 0x42
                    0x0042                  _SR = 0x42
                    0x0042                  _SRbits = 0x42
                    0x0044                  CORCON = 0x44
                    0x0044                  _CORCON = 0x44
                    0x0044                  _CORCONbits = 0x44
                    0x0052                  DISICNT = 0x52
                    0x0052                  _DISICNT = 0x52
                    0x0054                  CNPD1 = 0x54
                    0x0054                  _CNPD1 = 0x54
                    0x0054                  _CNPD1bits = 0x54
                    0x0056                  CNPD2 = 0x56
                    0x0056                  _CNPD2 = 0x56
                    0x0056                  _CNPD2bits = 0x56
                    0x0058                  CNPD3 = 0x58
                    0x0058                  _CNPD3 = 0x58
                    0x0058                  _CNPD3bits = 0x58
                    0x005a                  CNPD4 = 0x5a
                    0x005a                  _CNPD4 = 0x5a
                    0x005a                  _CNPD4bits = 0x5a
                    0x005c                  CNPD5 = 0x5c
                    0x005c                  _CNPD5 = 0x5c
                    0x005c                  _CNPD5bits = 0x5c
                    0x005e                  CNPD6 = 0x5e
                    0x005e                  _CNPD6 = 0x5e
                    0x005e                  _CNPD6bits = 0x5e
                    0x0060                  CNEN1 = 0x60
                    0x0060                  _CNEN1 = 0x60
                    0x0060                  _CNEN1bits = 0x60
                    0x0062                  CNEN2 = 0x62
                    0x0062                  _CNEN2 = 0x62
                    0x0062                  _CNEN2bits = 0x62
                    0x0064                  CNEN3 = 0x64
                    0x0064                  _CNEN3 = 0x64
                    0x0064                  _CNEN3bits = 0x64
                    0x0066                  CNEN4 = 0x66
                    0x0066                  _CNEN4 = 0x66
                    0x0066                  _CNEN4bits = 0x66
                    0x0068                  CNEN5 = 0x68
                    0x0068                  _CNEN5 = 0x68
                    0x0068                  _CNEN5bits = 0x68
                    0x006a                  CNEN6 = 0x6a
                    0x006a                  _CNEN6 = 0x6a
                    0x006a                  _CNEN6bits = 0x6a
                    0x006c                  CNPU1 = 0x6c
                    0x006c                  _CNPU1 = 0x6c
                    0x006c                  _CNPU1bits = 0x6c
                    0x006e                  CNPU2 = 0x6e
                    0x006e                  _CNPU2 = 0x6e
                    0x006e                  _CNPU2bits = 0x6e
                    0x0070                  CNPU3 = 0x70
                    0x0070                  _CNPU3 = 0x70
                    0x0070                  _CNPU3bits = 0x70
                    0x0072                  CNPU4 = 0x72
                    0x0072                  _CNPU4 = 0x72
                    0x0072                  _CNPU4bits = 0x72
                    0x0074                  CNPU5 = 0x74
                    0x0074                  _CNPU5 = 0x74
                    0x0074                  _CNPU5bits = 0x74
                    0x0076                  CNPU6 = 0x76
                    0x0076                  _CNPU6 = 0x76
                    0x0076                  _CNPU6bits = 0x76
                    0x0080                  INTCON1 = 0x80
                    0x0080                  _INTCON1 = 0x80
                    0x0080                  _INTCON1bits = 0x80
                    0x0082                  INTCON2 = 0x82
                    0x0082                  _INTCON2 = 0x82
                    0x0082                  _INTCON2bits = 0x82
                    0x0084                  IFS0 = 0x84
                    0x0084                  _IFS0 = 0x84
                    0x0084                  _IFS0bits = 0x84
                    0x0086                  IFS1 = 0x86
                    0x0086                  _IFS1 = 0x86
                    0x0086                  _IFS1bits = 0x86
                    0x0088                  IFS2 = 0x88
                    0x0088                  _IFS2 = 0x88
                    0x0088                  _IFS2bits = 0x88
                    0x008a                  IFS3 = 0x8a
                    0x008a                  _IFS3 = 0x8a
                    0x008a                  _IFS3bits = 0x8a
                    0x008c                  IFS4 = 0x8c
                    0x008c                  _IFS4 = 0x8c
                    0x008c                  _IFS4bits = 0x8c
                    0x008e                  IFS5 = 0x8e
                    0x008e                  _IFS5 = 0x8e
                    0x008e                  _IFS5bits = 0x8e
                    0x0094                  IEC0 = 0x94
                    0x0094                  _IEC0 = 0x94
                    0x0094                  _IEC0bits = 0x94
                    0x0096                  IEC1 = 0x96
                    0x0096                  _IEC1 = 0x96
                    0x0096                  _IEC1bits = 0x96
                    0x0098                  IEC2 = 0x98
                    0x0098                  _IEC2 = 0x98
                    0x0098                  _IEC2bits = 0x98
                    0x009a                  IEC3 = 0x9a
                    0x009a                  _IEC3 = 0x9a
                    0x009a                  _IEC3bits = 0x9a
                    0x009c                  IEC4 = 0x9c
                    0x009c                  _IEC4 = 0x9c
                    0x009c                  _IEC4bits = 0x9c
                    0x009e                  IEC5 = 0x9e
                    0x009e                  _IEC5 = 0x9e
                    0x009e                  _IEC5bits = 0x9e
                    0x00a4                  IPC0 = 0xa4
                    0x00a4                  _IPC0 = 0xa4
                    0x00a4                  _IPC0bits = 0xa4
                    0x00a6                  IPC1 = 0xa6
                    0x00a6                  _IPC1 = 0xa6
                    0x00a6                  _IPC1bits = 0xa6
                    0x00a8                  IPC2 = 0xa8
                    0x00a8                  _IPC2 = 0xa8
                    0x00a8                  _IPC2bits = 0xa8
                    0x00aa                  IPC3 = 0xaa
                    0x00aa                  _IPC3 = 0xaa
                    0x00aa                  _IPC3bits = 0xaa
                    0x00ac                  IPC4 = 0xac
                    0x00ac                  _IPC4 = 0xac
                    0x00ac                  _IPC4bits = 0xac
                    0x00ae                  IPC5 = 0xae
                    0x00ae                  _IPC5 = 0xae
                    0x00ae                  _IPC5bits = 0xae
                    0x00b0                  IPC6 = 0xb0
                    0x00b0                  _IPC6 = 0xb0
                    0x00b0                  _IPC6bits = 0xb0
                    0x00b2                  IPC7 = 0xb2
                    0x00b2                  _IPC7 = 0xb2
                    0x00b2                  _IPC7bits = 0xb2
                    0x00b4                  IPC8 = 0xb4
                    0x00b4                  _IPC8 = 0xb4
                    0x00b4                  _IPC8bits = 0xb4
                    0x00b6                  IPC9 = 0xb6
                    0x00b6                  _IPC9 = 0xb6
                    0x00b6                  _IPC9bits = 0xb6
                    0x00b8                  IPC10 = 0xb8
                    0x00b8                  _IPC10 = 0xb8
                    0x00b8                  _IPC10bits = 0xb8
                    0x00ba                  IPC11 = 0xba
                    0x00ba                  _IPC11 = 0xba
                    0x00ba                  _IPC11bits = 0xba
                    0x00bc                  IPC12 = 0xbc
                    0x00bc                  _IPC12 = 0xbc
                    0x00bc                  _IPC12bits = 0xbc
                    0x00be                  IPC13 = 0xbe
                    0x00be                  _IPC13 = 0xbe
                    0x00be                  _IPC13bits = 0xbe
                    0x00c2                  IPC15 = 0xc2
                    0x00c2                  _IPC15 = 0xc2
                    0x00c2                  _IPC15bits = 0xc2
                    0x00c4                  IPC16 = 0xc4
                    0x00c4                  _IPC16 = 0xc4
                    0x00c4                  _IPC16bits = 0xc4
                    0x00c8                  IPC18 = 0xc8
                    0x00c8                  _IPC18 = 0xc8
                    0x00c8                  _IPC18bits = 0xc8
                    0x00ca                  IPC19 = 0xca
                    0x00ca                  _IPC19 = 0xca
                    0x00ca                  _IPC19bits = 0xca
                    0x00cc                  IPC20 = 0xcc
                    0x00cc                  _IPC20 = 0xcc
                    0x00cc                  _IPC20bits = 0xcc
                    0x00ce                  IPC21 = 0xce
                    0x00ce                  _IPC21 = 0xce
                    0x00ce                  _IPC21bits = 0xce
                    0x00d0                  IPC22 = 0xd0
                    0x00d0                  _IPC22 = 0xd0
                    0x00d0                  _IPC22bits = 0xd0
                    0x00d2                  IPC23 = 0xd2
                    0x00d2                  _IPC23 = 0xd2
                    0x00d2                  _IPC23bits = 0xd2
                    0x0100                  TMR1 = 0x100
                    0x0100                  _TMR1 = 0x100
                    0x0102                  PR1 = 0x102
                    0x0102                  _PR1 = 0x102
                    0x0104                  T1CON = 0x104
                    0x0104                  _T1CON = 0x104
                    0x0104                  _T1CONbits = 0x104
                    0x0106                  TMR2 = 0x106
                    0x0106                  _TMR2 = 0x106
                    0x0108                  TMR3HLD = 0x108
                    0x0108                  _TMR3HLD = 0x108
                    0x010a                  TMR3 = 0x10a
                    0x010a                  _TMR3 = 0x10a
                    0x010c                  PR2 = 0x10c
                    0x010c                  _PR2 = 0x10c
                    0x010e                  PR3 = 0x10e
                    0x010e                  _PR3 = 0x10e
                    0x0110                  T2CON = 0x110
                    0x0110                  _T2CON = 0x110
                    0x0110                  _T2CONbits = 0x110
                    0x0112                  T3CON = 0x112
                    0x0112                  _T3CON = 0x112
                    0x0112                  _T3CONbits = 0x112
                    0x0114                  TMR4 = 0x114
                    0x0114                  _TMR4 = 0x114
                    0x0116                  TMR5HLD = 0x116
                    0x0116                  _TMR5HLD = 0x116
                    0x0118                  TMR5 = 0x118
                    0x0118                  _TMR5 = 0x118
                    0x011a                  PR4 = 0x11a
                    0x011a                  _PR4 = 0x11a
                    0x011c                  PR5 = 0x11c
                    0x011c                  _PR5 = 0x11c
                    0x011e                  T4CON = 0x11e
                    0x011e                  _T4CON = 0x11e
                    0x011e                  _T4CONbits = 0x11e
                    0x0120                  T5CON = 0x120
                    0x0120                  _T5CON = 0x120
                    0x0120                  _T5CONbits = 0x120
                    0x0140                  IC1CON1 = 0x140
                    0x0140                  _IC1CON1 = 0x140
                    0x0140                  _IC1CON1bits = 0x140
                    0x0142                  IC1CON2 = 0x142
                    0x0142                  _IC1CON2 = 0x142
                    0x0142                  _IC1CON2bits = 0x142
                    0x0144                  IC1BUF = 0x144
                    0x0144                  _IC1BUF = 0x144
                    0x0146                  IC1TMR = 0x146
                    0x0146                  _IC1TMR = 0x146
                    0x0148                  IC2CON1 = 0x148
                    0x0148                  _IC2CON1 = 0x148
                    0x0148                  _IC2CON1bits = 0x148
                    0x014a                  IC2CON2 = 0x14a
                    0x014a                  _IC2CON2 = 0x14a
                    0x014a                  _IC2CON2bits = 0x14a
                    0x014c                  IC2BUF = 0x14c
                    0x014c                  _IC2BUF = 0x14c
                    0x014e                  IC2TMR = 0x14e
                    0x014e                  _IC2TMR = 0x14e
                    0x0150                  IC3CON1 = 0x150
                    0x0150                  _IC3CON1 = 0x150
                    0x0150                  _IC3CON1bits = 0x150
                    0x0152                  IC3CON2 = 0x152
                    0x0152                  _IC3CON2 = 0x152
                    0x0152                  _IC3CON2bits = 0x152
                    0x0154                  IC3BUF = 0x154
                    0x0154                  _IC3BUF = 0x154
                    0x0156                  IC3TMR = 0x156
                    0x0156                  _IC3TMR = 0x156
                    0x0158                  IC4CON1 = 0x158
                    0x0158                  _IC4CON1 = 0x158
                    0x0158                  _IC4CON1bits = 0x158
                    0x015a                  IC4CON2 = 0x15a
                    0x015a                  _IC4CON2 = 0x15a
                    0x015a                  _IC4CON2bits = 0x15a
                    0x015c                  IC4BUF = 0x15c
                    0x015c                  _IC4BUF = 0x15c
                    0x015e                  IC4TMR = 0x15e
                    0x015e                  _IC4TMR = 0x15e
                    0x0160                  IC5CON1 = 0x160
                    0x0160                  _IC5CON1 = 0x160
                    0x0160                  _IC5CON1bits = 0x160
                    0x0162                  IC5CON2 = 0x162
                    0x0162                  _IC5CON2 = 0x162
                    0x0162                  _IC5CON2bits = 0x162
                    0x0164                  IC5BUF = 0x164
                    0x0164                  _IC5BUF = 0x164
                    0x0166                  IC5TMR = 0x166
                    0x0166                  _IC5TMR = 0x166
                    0x0168                  IC6CON1 = 0x168
                    0x0168                  _IC6CON1 = 0x168
                    0x0168                  _IC6CON1bits = 0x168
                    0x016a                  IC6CON2 = 0x16a
                    0x016a                  _IC6CON2 = 0x16a
                    0x016a                  _IC6CON2bits = 0x16a
                    0x016c                  IC6BUF = 0x16c
                    0x016c                  _IC6BUF = 0x16c
                    0x016e                  IC6TMR = 0x16e
                    0x016e                  _IC6TMR = 0x16e
                    0x0170                  IC7CON1 = 0x170
                    0x0170                  _IC7CON1 = 0x170
                    0x0170                  _IC7CON1bits = 0x170
                    0x0172                  IC7CON2 = 0x172
                    0x0172                  _IC7CON2 = 0x172
                    0x0172                  _IC7CON2bits = 0x172
                    0x0174                  IC7BUF = 0x174
                    0x0174                  _IC7BUF = 0x174
                    0x0176                  IC7TMR = 0x176
                    0x0176                  _IC7TMR = 0x176
                    0x0178                  IC8CON1 = 0x178
                    0x0178                  _IC8CON1 = 0x178
                    0x0178                  _IC8CON1bits = 0x178
                    0x017a                  IC8CON2 = 0x17a
                    0x017a                  _IC8CON2 = 0x17a
                    0x017a                  _IC8CON2bits = 0x17a
                    0x017c                  IC8BUF = 0x17c
                    0x017c                  _IC8BUF = 0x17c
                    0x017e                  IC8TMR = 0x17e
                    0x017e                  _IC8TMR = 0x17e
                    0x0180                  IC9CON1 = 0x180
                    0x0180                  _IC9CON1 = 0x180
                    0x0180                  _IC9CON1bits = 0x180
                    0x0182                  IC9CON2 = 0x182
                    0x0182                  _IC9CON2 = 0x182
                    0x0182                  _IC9CON2bits = 0x182
                    0x0184                  IC9BUF = 0x184
                    0x0184                  _IC9BUF = 0x184
                    0x0186                  IC9TMR = 0x186
                    0x0186                  _IC9TMR = 0x186
                    0x0190                  OC1CON1 = 0x190
                    0x0190                  _OC1CON1 = 0x190
                    0x0190                  _OC1CON1bits = 0x190
                    0x0192                  OC1CON2 = 0x192
                    0x0192                  _OC1CON2 = 0x192
                    0x0192                  _OC1CON2bits = 0x192
                    0x0194                  OC1RS = 0x194
                    0x0194                  _OC1RS = 0x194
                    0x0196                  OC1R = 0x196
                    0x0196                  _OC1R = 0x196
                    0x0198                  OC1TMR = 0x198
                    0x0198                  _OC1TMR = 0x198
                    0x019a                  OC2CON1 = 0x19a
                    0x019a                  _OC2CON1 = 0x19a
                    0x019a                  _OC2CON1bits = 0x19a
                    0x019c                  OC2CON2 = 0x19c
                    0x019c                  _OC2CON2 = 0x19c
                    0x019c                  _OC2CON2bits = 0x19c
                    0x019e                  OC2RS = 0x19e
                    0x019e                  _OC2RS = 0x19e
                    0x01a0                  OC2R = 0x1a0
                    0x01a0                  _OC2R = 0x1a0
                    0x01a2                  OC2TMR = 0x1a2
                    0x01a2                  _OC2TMR = 0x1a2
                    0x01a4                  OC3CON1 = 0x1a4
                    0x01a4                  _OC3CON1 = 0x1a4
                    0x01a4                  _OC3CON1bits = 0x1a4
                    0x01a6                  OC3CON2 = 0x1a6
                    0x01a6                  _OC3CON2 = 0x1a6
                    0x01a6                  _OC3CON2bits = 0x1a6
                    0x01a8                  OC3RS = 0x1a8
                    0x01a8                  _OC3RS = 0x1a8
                    0x01aa                  OC3R = 0x1aa
                    0x01aa                  _OC3R = 0x1aa
                    0x01ac                  OC3TMR = 0x1ac
                    0x01ac                  _OC3TMR = 0x1ac
                    0x01ae                  OC4CON1 = 0x1ae
                    0x01ae                  _OC4CON1 = 0x1ae
                    0x01ae                  _OC4CON1bits = 0x1ae
                    0x01b0                  OC4CON2 = 0x1b0
                    0x01b0                  _OC4CON2 = 0x1b0
                    0x01b0                  _OC4CON2bits = 0x1b0
                    0x01b2                  OC4RS = 0x1b2
                    0x01b2                  _OC4RS = 0x1b2
                    0x01b4                  OC4R = 0x1b4
                    0x01b4                  _OC4R = 0x1b4
                    0x01b6                  OC4TMR = 0x1b6
                    0x01b6                  _OC4TMR = 0x1b6
                    0x01b8                  OC5CON1 = 0x1b8
                    0x01b8                  _OC5CON1 = 0x1b8
                    0x01b8                  _OC5CON1bits = 0x1b8
                    0x01ba                  OC5CON2 = 0x1ba
                    0x01ba                  _OC5CON2 = 0x1ba
                    0x01ba                  _OC5CON2bits = 0x1ba
                    0x01bc                  OC5RS = 0x1bc
                    0x01bc                  _OC5RS = 0x1bc
                    0x01be                  OC5R = 0x1be
                    0x01be                  _OC5R = 0x1be
                    0x01c0                  OC5TMR = 0x1c0
                    0x01c0                  _OC5TMR = 0x1c0
                    0x01c2                  OC6CON1 = 0x1c2
                    0x01c2                  _OC6CON1 = 0x1c2
                    0x01c2                  _OC6CON1bits = 0x1c2
                    0x01c4                  OC6CON2 = 0x1c4
                    0x01c4                  _OC6CON2 = 0x1c4
                    0x01c4                  _OC6CON2bits = 0x1c4
                    0x01c6                  OC6RS = 0x1c6
                    0x01c6                  _OC6RS = 0x1c6
                    0x01c8                  OC6R = 0x1c8
                    0x01c8                  _OC6R = 0x1c8
                    0x01ca                  OC6TMR = 0x1ca
                    0x01ca                  _OC6TMR = 0x1ca
                    0x01cc                  OC7CON1 = 0x1cc
                    0x01cc                  _OC7CON1 = 0x1cc
                    0x01cc                  _OC7CON1bits = 0x1cc
                    0x01ce                  OC7CON2 = 0x1ce
                    0x01ce                  _OC7CON2 = 0x1ce
                    0x01ce                  _OC7CON2bits = 0x1ce
                    0x01d0                  OC7RS = 0x1d0
                    0x01d0                  _OC7RS = 0x1d0
                    0x01d2                  OC7R = 0x1d2
                    0x01d2                  _OC7R = 0x1d2
                    0x01d4                  OC7TMR = 0x1d4
                    0x01d4                  _OC7TMR = 0x1d4
                    0x01d6                  OC8CON1 = 0x1d6
                    0x01d6                  _OC8CON1 = 0x1d6
                    0x01d6                  _OC8CON1bits = 0x1d6
                    0x01d8                  OC8CON2 = 0x1d8
                    0x01d8                  _OC8CON2 = 0x1d8
                    0x01d8                  _OC8CON2bits = 0x1d8
                    0x01da                  OC8RS = 0x1da
                    0x01da                  _OC8RS = 0x1da
                    0x01dc                  OC8R = 0x1dc
                    0x01dc                  _OC8R = 0x1dc
                    0x01de                  OC8TMR = 0x1de
                    0x01de                  _OC8TMR = 0x1de
                    0x01e0                  OC9CON1 = 0x1e0
                    0x01e0                  _OC9CON1 = 0x1e0
                    0x01e0                  _OC9CON1bits = 0x1e0
                    0x01e2                  OC9CON2 = 0x1e2
                    0x01e2                  _OC9CON2 = 0x1e2
                    0x01e2                  _OC9CON2bits = 0x1e2
                    0x01e4                  OC9RS = 0x1e4
                    0x01e4                  _OC9RS = 0x1e4
                    0x01e6                  OC9R = 0x1e6
                    0x01e6                  _OC9R = 0x1e6
                    0x01e8                  OC9TMR = 0x1e8
                    0x01e8                  _OC9TMR = 0x1e8
                    0x0200                  I2C1RCV = 0x200
                    0x0200                  _I2C1RCV = 0x200
                    0x0202                  I2C1TRN = 0x202
                    0x0202                  _I2C1TRN = 0x202
                    0x0204                  I2C1BRG = 0x204
                    0x0204                  _I2C1BRG = 0x204
                    0x0206                  I2C1CON = 0x206
                    0x0206                  _I2C1CON = 0x206
                    0x0206                  _I2C1CONbits = 0x206
                    0x0208                  I2C1STAT = 0x208
                    0x0208                  _I2C1STAT = 0x208
                    0x0208                  _I2C1STATbits = 0x208
                    0x020a                  I2C1ADD = 0x20a
                    0x020a                  _I2C1ADD = 0x20a
                    0x020c                  I2C1MSK = 0x20c
                    0x020c                  _I2C1MSK = 0x20c
                    0x0210                  I2C2RCV = 0x210
                    0x0210                  _I2C2RCV = 0x210
                    0x0212                  I2C2TRN = 0x212
                    0x0212                  _I2C2TRN = 0x212
                    0x0214                  I2C2BRG = 0x214
                    0x0214                  _I2C2BRG = 0x214
                    0x0216                  I2C2CON = 0x216
                    0x0216                  _I2C2CON = 0x216
                    0x0216                  _I2C2CONbits = 0x216
                    0x0218                  I2C2STAT = 0x218
                    0x0218                  _I2C2STAT = 0x218
                    0x0218                  _I2C2STATbits = 0x218
                    0x021a                  I2C2ADD = 0x21a
                    0x021a                  _I2C2ADD = 0x21a
                    0x021c                  I2C2MSK = 0x21c
                    0x021c                  _I2C2MSK = 0x21c
                    0x0220                  U1MODE = 0x220
                    0x0220                  _U1MODE = 0x220
                    0x0220                  _U1MODEbits = 0x220
                    0x0222                  U1STA = 0x222
                    0x0222                  _U1STA = 0x222
                    0x0222                  _U1STAbits = 0x222
                    0x0224                  U1TXREG = 0x224
                    0x0224                  _U1TXREG = 0x224
                    0x0226                  U1RXREG = 0x226
                    0x0226                  _U1RXREG = 0x226
                    0x0228                  U1BRG = 0x228
                    0x0228                  _U1BRG = 0x228
                    0x0230                  U2MODE = 0x230
                    0x0230                  _U2MODE = 0x230
                    0x0230                  _U2MODEbits = 0x230
                    0x0232                  U2STA = 0x232
                    0x0232                  _U2STA = 0x232
                    0x0232                  _U2STAbits = 0x232
                    0x0234                  U2TXREG = 0x234
                    0x0234                  _U2TXREG = 0x234
                    0x0236                  U2RXREG = 0x236
                    0x0236                  _U2RXREG = 0x236
                    0x0238                  U2BRG = 0x238
                    0x0238                  _U2BRG = 0x238
                    0x0240                  SPI1STAT = 0x240
                    0x0240                  _SPI1STAT = 0x240
                    0x0240                  _SPI1STATbits = 0x240
                    0x0242                  SPI1CON1 = 0x242
                    0x0242                  _SPI1CON1 = 0x242
                    0x0242                  _SPI1CON1bits = 0x242
                    0x0244                  SPI1CON2 = 0x244
                    0x0244                  _SPI1CON2 = 0x244
                    0x0244                  _SPI1CON2bits = 0x244
                    0x0248                  SPI1BUF = 0x248
                    0x0248                  _SPI1BUF = 0x248
                    0x0250                  U3MODE = 0x250
                    0x0250                  _U3MODE = 0x250
                    0x0250                  _U3MODEbits = 0x250
                    0x0252                  U3STA = 0x252
                    0x0252                  _U3STA = 0x252
                    0x0252                  _U3STAbits = 0x252
                    0x0254                  U3TXREG = 0x254
                    0x0254                  _U3TXREG = 0x254
                    0x0256                  U3RXREG = 0x256
                    0x0256                  _U3RXREG = 0x256
                    0x0258                  U3BRG = 0x258
                    0x0258                  _U3BRG = 0x258
                    0x0260                  SPI2STAT = 0x260
                    0x0260                  _SPI2STAT = 0x260
                    0x0260                  _SPI2STATbits = 0x260
                    0x0262                  SPI2CON1 = 0x262
                    0x0262                  _SPI2CON1 = 0x262
                    0x0262                  _SPI2CON1bits = 0x262
                    0x0264                  SPI2CON2 = 0x264
                    0x0264                  _SPI2CON2 = 0x264
                    0x0264                  _SPI2CON2bits = 0x264
                    0x0268                  SPI2BUF = 0x268
                    0x0268                  _SPI2BUF = 0x268
                    0x0270                  I2C3RCV = 0x270
                    0x0270                  _I2C3RCV = 0x270
                    0x0272                  I2C3TRN = 0x272
                    0x0272                  _I2C3TRN = 0x272
                    0x0274                  I2C3BRG = 0x274
                    0x0274                  _I2C3BRG = 0x274
                    0x0276                  I2C3CON = 0x276
                    0x0276                  _I2C3CON = 0x276
                    0x0276                  _I2C3CONbits = 0x276
                    0x0278                  I2C3STAT = 0x278
                    0x0278                  _I2C3STAT = 0x278
                    0x0278                  _I2C3STATbits = 0x278
                    0x027a                  I2C3ADD = 0x27a
                    0x027a                  _I2C3ADD = 0x27a
                    0x027c                  I2C3MSK = 0x27c
                    0x027c                  _I2C3MSK = 0x27c
                    0x0280                  SPI3STAT = 0x280
                    0x0280                  _SPI3STAT = 0x280
                    0x0280                  _SPI3STATbits = 0x280
                    0x0282                  SPI3CON1 = 0x282
                    0x0282                  _SPI3CON1 = 0x282
                    0x0282                  _SPI3CON1bits = 0x282
                    0x0284                  SPI3CON2 = 0x284
                    0x0284                  _SPI3CON2 = 0x284
                    0x0284                  _SPI3CON2bits = 0x284
                    0x0288                  SPI3BUF = 0x288
                    0x0288                  _SPI3BUF = 0x288
                    0x02b0                  U4MODE = 0x2b0
                    0x02b0                  _U4MODE = 0x2b0
                    0x02b0                  _U4MODEbits = 0x2b0
                    0x02b2                  U4STA = 0x2b2
                    0x02b2                  _U4STA = 0x2b2
                    0x02b2                  _U4STAbits = 0x2b2
                    0x02b4                  U4TXREG = 0x2b4
                    0x02b4                  _U4TXREG = 0x2b4
                    0x02b6                  U4RXREG = 0x2b6
                    0x02b6                  _U4RXREG = 0x2b6
                    0x02b8                  U4BRG = 0x2b8
                    0x02b8                  _U4BRG = 0x2b8
                    0x02c8                  TRISB = 0x2c8
                    0x02c8                  _TRISB = 0x2c8
                    0x02c8                  _TRISBbits = 0x2c8
                    0x02ca                  PORTB = 0x2ca
                    0x02ca                  _PORTB = 0x2ca
                    0x02ca                  _PORTBbits = 0x2ca
                    0x02cc                  LATB = 0x2cc
                    0x02cc                  _LATB = 0x2cc
                    0x02cc                  _LATBbits = 0x2cc
                    0x02ce                  ODCB = 0x2ce
                    0x02ce                  _ODCB = 0x2ce
                    0x02ce                  _ODCBbits = 0x2ce
                    0x02d0                  TRISC = 0x2d0
                    0x02d0                  _TRISC = 0x2d0
                    0x02d0                  _TRISCbits = 0x2d0
                    0x02d2                  PORTC = 0x2d2
                    0x02d2                  _PORTC = 0x2d2
                    0x02d2                  _PORTCbits = 0x2d2
                    0x02d4                  LATC = 0x2d4
                    0x02d4                  _LATC = 0x2d4
                    0x02d4                  _LATCbits = 0x2d4
                    0x02d6                  ODCC = 0x2d6
                    0x02d6                  _ODCC = 0x2d6
                    0x02d6                  _ODCCbits = 0x2d6
                    0x02d8                  TRISD = 0x2d8
                    0x02d8                  _TRISD = 0x2d8
                    0x02d8                  _TRISDbits = 0x2d8
                    0x02da                  PORTD = 0x2da
                    0x02da                  _PORTD = 0x2da
                    0x02da                  _PORTDbits = 0x2da
                    0x02dc                  LATD = 0x2dc
                    0x02dc                  _LATD = 0x2dc
                    0x02dc                  _LATDbits = 0x2dc
                    0x02de                  ODCD = 0x2de
                    0x02de                  _ODCD = 0x2de
                    0x02de                  _ODCDbits = 0x2de
                    0x02e0                  TRISE = 0x2e0
                    0x02e0                  _TRISE = 0x2e0
                    0x02e0                  _TRISEbits = 0x2e0
                    0x02e2                  PORTE = 0x2e2
                    0x02e2                  _PORTE = 0x2e2
                    0x02e2                  _PORTEbits = 0x2e2
                    0x02e4                  LATE = 0x2e4
                    0x02e4                  _LATE = 0x2e4
                    0x02e4                  _LATEbits = 0x2e4
                    0x02e6                  ODCE = 0x2e6
                    0x02e6                  _ODCE = 0x2e6
                    0x02e6                  _ODCEbits = 0x2e6
                    0x02e8                  TRISF = 0x2e8
                    0x02e8                  _TRISF = 0x2e8
                    0x02e8                  _TRISFbits = 0x2e8
                    0x02ea                  PORTF = 0x2ea
                    0x02ea                  _PORTF = 0x2ea
                    0x02ea                  _PORTFbits = 0x2ea
                    0x02ec                  LATF = 0x2ec
                    0x02ec                  _LATF = 0x2ec
                    0x02ec                  _LATFbits = 0x2ec
                    0x02ee                  ODCF = 0x2ee
                    0x02ee                  _ODCF = 0x2ee
                    0x02ee                  _ODCFbits = 0x2ee
                    0x02f0                  TRISG = 0x2f0
                    0x02f0                  _TRISG = 0x2f0
                    0x02f0                  _TRISGbits = 0x2f0
                    0x02f2                  PORTG = 0x2f2
                    0x02f2                  _PORTG = 0x2f2
                    0x02f2                  _PORTGbits = 0x2f2
                    0x02f4                  LATG = 0x2f4
                    0x02f4                  _LATG = 0x2f4
                    0x02f4                  _LATGbits = 0x2f4
                    0x02f6                  ODCG = 0x2f6
                    0x02f6                  _ODCG = 0x2f6
                    0x02f6                  _ODCGbits = 0x2f6
                    0x02fc                  PADCFG1 = 0x2fc
                    0x02fc                  _PADCFG1 = 0x2fc
                    0x02fc                  _PADCFG1bits = 0x2fc
                    0x0300                  ADC1BUF0 = 0x300
                    0x0300                  _ADC1BUF0 = 0x300
                    0x0302                  ADC1BUF1 = 0x302
                    0x0302                  _ADC1BUF1 = 0x302
                    0x0304                  ADC1BUF2 = 0x304
                    0x0304                  _ADC1BUF2 = 0x304
                    0x0306                  ADC1BUF3 = 0x306
                    0x0306                  _ADC1BUF3 = 0x306
                    0x0308                  ADC1BUF4 = 0x308
                    0x0308                  _ADC1BUF4 = 0x308
                    0x030a                  ADC1BUF5 = 0x30a
                    0x030a                  _ADC1BUF5 = 0x30a
                    0x030c                  ADC1BUF6 = 0x30c
                    0x030c                  _ADC1BUF6 = 0x30c
                    0x030e                  ADC1BUF7 = 0x30e
                    0x030e                  _ADC1BUF7 = 0x30e
                    0x0310                  ADC1BUF8 = 0x310
                    0x0310                  _ADC1BUF8 = 0x310
                    0x0312                  ADC1BUF9 = 0x312
                    0x0312                  _ADC1BUF9 = 0x312
                    0x0314                  ADC1BUFA = 0x314
                    0x0314                  _ADC1BUFA = 0x314
                    0x0316                  ADC1BUFB = 0x316
                    0x0316                  _ADC1BUFB = 0x316
                    0x0318                  ADC1BUFC = 0x318
                    0x0318                  _ADC1BUFC = 0x318
                    0x031a                  ADC1BUFD = 0x31a
                    0x031a                  _ADC1BUFD = 0x31a
                    0x031c                  ADC1BUFE = 0x31c
                    0x031c                  _ADC1BUFE = 0x31c
                    0x031e                  ADC1BUFF = 0x31e
                    0x031e                  _ADC1BUFF = 0x31e
                    0x0320                  AD1CON1 = 0x320
                    0x0320                  _AD1CON1 = 0x320
                    0x0320                  _AD1CON1bits = 0x320
                    0x0322                  AD1CON2 = 0x322
                    0x0322                  _AD1CON2 = 0x322
                    0x0322                  _AD1CON2bits = 0x322
                    0x0324                  AD1CON3 = 0x324
                    0x0324                  _AD1CON3 = 0x324
                    0x0324                  _AD1CON3bits = 0x324
                    0x0328                  AD1CHS = 0x328
                    0x0328                  _AD1CHS = 0x328
                    0x0328                  _AD1CHSbits = 0x328
                    0x0328                  AD1CHS0 = 0x328
                    0x0328                  _AD1CHS0 = 0x328
                    0x0328                  _AD1CHS0bits = 0x328
                    0x032a                  AD1PCFGH = 0x32a
                    0x032a                  _AD1PCFGH = 0x32a
                    0x032a                  _AD1PCFGHbits = 0x32a
                    0x032c                  AD1PCFG = 0x32c
                    0x032c                  _AD1PCFG = 0x32c
                    0x032c                  _AD1PCFGbits = 0x32c
                    0x032c                  AD1PCFGL = 0x32c
                    0x032c                  _AD1PCFGL = 0x32c
                    0x032c                  _AD1PCFGLbits = 0x32c
                    0x0330                  AD1CSSL = 0x330
                    0x0330                  _AD1CSSL = 0x330
                    0x0330                  _AD1CSSLbits = 0x330
                    0x0332                  AD1CSSH = 0x332
                    0x0332                  _AD1CSSH = 0x332
                    0x0332                  _AD1CSSHbits = 0x332
                    0x033c                  CTMUCON = 0x33c
                    0x033c                  _CTMUCON = 0x33c
                    0x033c                  _CTMUCONbits = 0x33c
                    0x033e                  CTMUICON = 0x33e
                    0x033e                  _CTMUICON = 0x33e
                    0x033e                  _CTMUICONbits = 0x33e
                    0x0600                  PMCON = 0x600
                    0x0600                  _PMCON = 0x600
                    0x0600                  _PMCONbits = 0x600
                    0x0602                  PMMODE = 0x602
                    0x0602                  _PMMODE = 0x602
                    0x0602                  _PMMODEbits = 0x602
                    0x0604                  PMADDR = 0x604
                    0x0604                  _PMADDR = 0x604
                    0x0604                  _PMADDRbits = 0x604
                    0x0604                  PMDOUT1 = 0x604
                    0x0604                  _PMDOUT1 = 0x604
                    0x0604                  _PMDOUT1bits = 0x604
                    0x0606                  PMDOUT2 = 0x606
                    0x0606                  _PMDOUT2 = 0x606
                    0x0608                  PMDIN1 = 0x608
                    0x0608                  _PMDIN1 = 0x608
                    0x060a                  PMDIN2 = 0x60a
                    0x060a                  _PMDIN2 = 0x60a
                    0x060c                  PMAEN = 0x60c
                    0x060c                  _PMAEN = 0x60c
                    0x060c                  _PMAENbits = 0x60c
                    0x060e                  PMSTAT = 0x60e
                    0x060e                  _PMSTAT = 0x60e
                    0x060e                  _PMSTATbits = 0x60e
                    0x0620                  ALRMVAL = 0x620
                    0x0620                  _ALRMVAL = 0x620
                    0x0622                  ALCFGRPT = 0x622
                    0x0622                  _ALCFGRPT = 0x622
                    0x0622                  _ALCFGRPTbits = 0x622
                    0x0624                  RTCVAL = 0x624
                    0x0624                  _RTCVAL = 0x624
                    0x0626                  RCFGCAL = 0x626
                    0x0626                  _RCFGCAL = 0x626
                    0x0626                  _RCFGCALbits = 0x626
                    0x0630                  CMSTAT = 0x630
                    0x0630                  _CMSTAT = 0x630
                    0x0630                  _CMSTATbits = 0x630
                    0x0632                  CVRCON = 0x632
                    0x0632                  _CVRCON = 0x632
                    0x0632                  _CVRCONbits = 0x632
                    0x0634                  CM1CON = 0x634
                    0x0634                  _CM1CON = 0x634
                    0x0634                  _CM1CONbits = 0x634
                    0x0636                  CM2CON = 0x636
                    0x0636                  _CM2CON = 0x636
                    0x0636                  _CM2CONbits = 0x636
                    0x0638                  CM3CON = 0x638
                    0x0638                  _CM3CON = 0x638
                    0x0638                  _CM3CONbits = 0x638
                    0x0640                  CRCCON = 0x640
                    0x0640                  _CRCCON = 0x640
                    0x0640                  _CRCCONbits = 0x640
                    0x0642                  CRCXOR = 0x642
                    0x0642                  _CRCXOR = 0x642
                    0x0642                  _CRCXORbits = 0x642
                    0x0644                  CRCDAT = 0x644
                    0x0644                  _CRCDAT = 0x644
                    0x0646                  CRCWDAT = 0x646
                    0x0646                  _CRCWDAT = 0x646
                    0x0680                  RPINR0 = 0x680
                    0x0680                  _RPINR0 = 0x680
                    0x0680                  _RPINR0bits = 0x680
                    0x0682                  RPINR1 = 0x682
                    0x0682                  _RPINR1 = 0x682
                    0x0682                  _RPINR1bits = 0x682
                    0x0684                  RPINR2 = 0x684
                    0x0684                  _RPINR2 = 0x684
                    0x0684                  _RPINR2bits = 0x684
                    0x0686                  RPINR3 = 0x686
                    0x0686                  _RPINR3 = 0x686
                    0x0686                  _RPINR3bits = 0x686
                    0x0688                  RPINR4 = 0x688
                    0x0688                  _RPINR4 = 0x688
                    0x0688                  _RPINR4bits = 0x688
                    0x068e                  RPINR7 = 0x68e
                    0x068e                  _RPINR7 = 0x68e
                    0x068e                  _RPINR7bits = 0x68e
                    0x0690                  RPINR8 = 0x690
                    0x0690                  _RPINR8 = 0x690
                    0x0690                  _RPINR8bits = 0x690
                    0x0692                  RPINR9 = 0x692
                    0x0692                  _RPINR9 = 0x692
                    0x0692                  _RPINR9bits = 0x692
                    0x0694                  RPINR10 = 0x694
                    0x0694                  _RPINR10 = 0x694
                    0x0694                  _RPINR10bits = 0x694
                    0x0696                  RPINR11 = 0x696
                    0x0696                  _RPINR11 = 0x696
                    0x0696                  _RPINR11bits = 0x696
                    0x069e                  RPINR15 = 0x69e
                    0x069e                  _RPINR15 = 0x69e
                    0x069e                  _RPINR15bits = 0x69e
                    0x06a2                  RPINR17 = 0x6a2
                    0x06a2                  _RPINR17 = 0x6a2
                    0x06a2                  _RPINR17bits = 0x6a2
                    0x06a4                  RPINR18 = 0x6a4
                    0x06a4                  _RPINR18 = 0x6a4
                    0x06a4                  _RPINR18bits = 0x6a4
                    0x06a6                  RPINR19 = 0x6a6
                    0x06a6                  _RPINR19 = 0x6a6
                    0x06a6                  _RPINR19bits = 0x6a6
                    0x06a8                  RPINR20 = 0x6a8
                    0x06a8                  _RPINR20 = 0x6a8
                    0x06a8                  _RPINR20bits = 0x6a8
                    0x06aa                  RPINR21 = 0x6aa
                    0x06aa                  _RPINR21 = 0x6aa
                    0x06aa                  _RPINR21bits = 0x6aa
                    0x06ac                  RPINR22 = 0x6ac
                    0x06ac                  _RPINR22 = 0x6ac
                    0x06ac                  _RPINR22bits = 0x6ac
                    0x06ae                  RPINR23 = 0x6ae
                    0x06ae                  _RPINR23 = 0x6ae
                    0x06ae                  _RPINR23bits = 0x6ae
                    0x06b6                  RPINR27 = 0x6b6
                    0x06b6                  _RPINR27 = 0x6b6
                    0x06b6                  _RPINR27bits = 0x6b6
                    0x06b8                  RPINR28 = 0x6b8
                    0x06b8                  _RPINR28 = 0x6b8
                    0x06b8                  _RPINR28bits = 0x6b8
                    0x06ba                  RPINR29 = 0x6ba
                    0x06ba                  _RPINR29 = 0x6ba
                    0x06ba                  _RPINR29bits = 0x6ba
                    0x06c0                  RPOR0 = 0x6c0
                    0x06c0                  _RPOR0 = 0x6c0
                    0x06c0                  _RPOR0bits = 0x6c0
                    0x06c2                  RPOR1 = 0x6c2
                    0x06c2                  _RPOR1 = 0x6c2
                    0x06c2                  _RPOR1bits = 0x6c2
                    0x06c4                  RPOR2 = 0x6c4
                    0x06c4                  _RPOR2 = 0x6c4
                    0x06c4                  _RPOR2bits = 0x6c4
                    0x06c6                  RPOR3 = 0x6c6
                    0x06c6                  _RPOR3 = 0x6c6
                    0x06c6                  _RPOR3bits = 0x6c6
                    0x06c8                  RPOR4 = 0x6c8
                    0x06c8                  _RPOR4 = 0x6c8
                    0x06c8                  _RPOR4bits = 0x6c8
                    0x06ca                  RPOR5 = 0x6ca
                    0x06ca                  _RPOR5 = 0x6ca
                    0x06ca                  _RPOR5bits = 0x6ca
                    0x06cc                  RPOR6 = 0x6cc
                    0x06cc                  _RPOR6 = 0x6cc
                    0x06cc                  _RPOR6bits = 0x6cc
                    0x06ce                  RPOR7 = 0x6ce
                    0x06ce                  _RPOR7 = 0x6ce
                    0x06ce                  _RPOR7bits = 0x6ce
                    0x06d0                  RPOR8 = 0x6d0
                    0x06d0                  _RPOR8 = 0x6d0
                    0x06d0                  _RPOR8bits = 0x6d0
                    0x06d2                  RPOR9 = 0x6d2
                    0x06d2                  _RPOR9 = 0x6d2
                    0x06d2                  _RPOR9bits = 0x6d2
                    0x06d4                  RPOR10 = 0x6d4
                    0x06d4                  _RPOR10 = 0x6d4
                    0x06d4                  _RPOR10bits = 0x6d4
                    0x06d6                  RPOR11 = 0x6d6
                    0x06d6                  _RPOR11 = 0x6d6
                    0x06d6                  _RPOR11bits = 0x6d6
                    0x06d8                  RPOR12 = 0x6d8
                    0x06d8                  _RPOR12 = 0x6d8
                    0x06d8                  _RPOR12bits = 0x6d8
                    0x06da                  RPOR13 = 0x6da
                    0x06da                  _RPOR13 = 0x6da
                    0x06da                  _RPOR13bits = 0x6da
                    0x06dc                  RPOR14 = 0x6dc
                    0x06dc                  _RPOR14 = 0x6dc
                    0x06dc                  _RPOR14bits = 0x6dc
                    0x06de                  RPOR15 = 0x6de
                    0x06de                  _RPOR15 = 0x6de
                    0x06de                  _RPOR15bits = 0x6de
                    0x06e2                  ALTRP = 0x6e2
                    0x06e2                  _ALTRP = 0x6e2
                    0x06e2                  _ALTRPbits = 0x6e2
                    0x0740                  RCON = 0x740
                    0x0740                  _RCON = 0x740
                    0x0740                  _RCONbits = 0x740
                    0x0742                  OSCCON = 0x742
                    0x0742                  _OSCCON = 0x742
                    0x0742                  _OSCCONbits = 0x742
                    0x0742                  OSCCONL = 0x742
                    0x0742                  _OSCCONL = 0x742
                    0x0743                  OSCCONH = 0x743
                    0x0743                  _OSCCONH = 0x743
                    0x0744                  CLKDIV = 0x744
                    0x0744                  _CLKDIV = 0x744
                    0x0744                  _CLKDIVbits = 0x744
                    0x0748                  OSCTUN = 0x748
                    0x0748                  _OSCTUN = 0x748
                    0x0748                  _OSCTUNbits = 0x748
                    0x074e                  REFOCON = 0x74e
                    0x074e                  _REFOCON = 0x74e
                    0x074e                  _REFOCONbits = 0x74e
                    0x0760                  NVMCON = 0x760
                    0x0760                  _NVMCON = 0x760
                    0x0760                  _NVMCONbits = 0x760
                    0x0766                  NVMKEY = 0x766
                    0x0766                  _NVMKEY = 0x766
                    0x0770                  PMD1 = 0x770
                    0x0770                  _PMD1 = 0x770
                    0x0770                  _PMD1bits = 0x770
                    0x0772                  PMD2 = 0x772
                    0x0772                  _PMD2 = 0x772
                    0x0772                  _PMD2bits = 0x772
                    0x0774                  PMD3 = 0x774
                    0x0774                  _PMD3 = 0x774
                    0x0774                  _PMD3bits = 0x774
                    0x0776                  PMD4 = 0x776
                    0x0776                  _PMD4 = 0x776
                    0x0776                  _PMD4bits = 0x776
                    0x0778                  PMD5 = 0x778
                    0x0778                  _PMD5 = 0x778
                    0x0778                  _PMD5bits = 0x778
                    0x077a                  PMD6 = 0x77a
                    0x077a                  _PMD6 = 0x77a
                    0x077a                  _PMD6bits = 0x77a
                    0x0144                  IC1 = 0x144
                    0x0144                  _IC1 = 0x144
                    0x014c                  IC2 = 0x14c
                    0x014c                  _IC2 = 0x14c
                    0x0154                  IC3 = 0x154
                    0x0154                  _IC3 = 0x154
                    0x015c                  IC4 = 0x15c
                    0x015c                  _IC4 = 0x15c
                    0x0164                  IC5 = 0x164
                    0x0164                  _IC5 = 0x164
                    0x016c                  IC6 = 0x16c
                    0x016c                  _IC6 = 0x16c
                    0x0174                  IC7 = 0x174
                    0x0174                  _IC7 = 0x174
                    0x017c                  IC8 = 0x17c
                    0x017c                  _IC8 = 0x17c
                    0x0194                  OC1 = 0x194
                    0x0194                  _OC1 = 0x194
                    0x019e                  OC2 = 0x19e
                    0x019e                  _OC2 = 0x19e
                    0x01a8                  OC3 = 0x1a8
                    0x01a8                  _OC3 = 0x1a8
                    0x01b2                  OC4 = 0x1b2
                    0x01b2                  _OC4 = 0x1b2
                    0x01bc                  OC5 = 0x1bc
                    0x01bc                  _OC5 = 0x1bc
                    0x01c6                  OC6 = 0x1c6
                    0x01c6                  _OC6 = 0x1c6
                    0x01d0                  OC7 = 0x1d0
                    0x01d0                  _OC7 = 0x1d0
                    0x01da                  OC8 = 0x1da
                    0x01da                  _OC8 = 0x1da
                    0x0240                  SPI1 = 0x240
                    0x0240                  _SPI1 = 0x240
                    0x0260                  SPI2 = 0x260
                    0x0260                  _SPI2 = 0x260
                    0x0220                  UART1 = 0x220
                    0x0220                  _UART1 = 0x220
                    0x0230                  UART2 = 0x230
                    0x0230                  _UART2 = 0x230
                    0x0001                  __MPLAB_BUILD = 0x1
LOAD c:/program files (x86)/microchip/mplab c30/bin/bin/../../lib\libpic30-coff.a
LOAD c:/program files (x86)/microchip/mplab c30/bin/bin/../../lib\libc-coff.a
LOAD c:/program files (x86)/microchip/mplab c30/bin/bin/../../lib\libm-coff.a
START GROUP
LOAD c:/program files (x86)/microchip/mplab c30/bin/bin/../../lib\libpic30-coff.a
LOAD c:/program files (x86)/microchip/mplab c30/bin/bin/../../lib\libm-coff.a
LOAD c:/program files (x86)/microchip/mplab c30/bin/bin/../../lib\libc-coff.a
END GROUP
OUTPUT(C:\Users\Larizgoitia\Documents\GitHub\evrythng-openpicus\Obj\a.cof coff-pic30)
LOAD jump_table
LOAD data_init

__c30_signature
                  0x000000        0x4a4
 __c30_signature
                  0x000000          0x6 Announce.o
 __c30_signature
                  0x000006          0x6 ARCFOUR.o
 __c30_signature
                  0x00000c          0x6 ARP.o
 __c30_signature
                  0x000012          0x6 ARPlib.o
 __c30_signature
                  0x000018          0x6 BigInt.o
 __c30_signature
                  0x00001e          0x6 Delay.o
 __c30_signature
                  0x000024          0x6 DHCP.o
 __c30_signature
                  0x00002a          0x6 DHCPs.o
 __c30_signature
                  0x000030          0x6 DNS.o
 __c30_signature
                  0x000036          0x6 DNSs.o
 __c30_signature
                  0x00003c          0x6 DynDNS.o
 __c30_signature
                  0x000042          0x6 ENCX24J600.o
 __c30_signature
                  0x000048          0x6 FTP.o
 __c30_signature
                  0x00004e          0x6 FTPlib.o
 __c30_signature
                  0x000054          0x6 Hashes.o
 __c30_signature
                  0x00005a          0x6 heap_2.o
 __c30_signature
                  0x000060          0x6 Helpers.o
 __c30_signature
                  0x000066          0x6 HTTP2.o
 __c30_signature
                  0x00006c          0x6 HWInit.o
 __c30_signature
                  0x000072          0x6 HWlib.o
 __c30_signature
                  0x000078          0x6 ICMP.o
 __c30_signature
                  0x00007e          0x6 INTlib.o
 __c30_signature
                  0x000084          0x6 IP.o
 __c30_signature
                  0x00008a          0x6 ISRs.o
 __c30_signature
                  0x000090          0x6 list.o
 __c30_signature
                  0x000096          0x6 Main.o
 __c30_signature
                  0x00009c          0x6 MPFS2.o
 __c30_signature
                  0x0000a2          0x6 NBNS.o
 __c30_signature
                  0x0000a8          0x6 NETlib.o
 __c30_signature
                  0x0000ae          0x6 port.o
 __c30_signature
                  0x0000b4          0x6 queue.o
 __c30_signature
                  0x0000ba          0x6 Random.o
 __c30_signature
                  0x0000c0          0x6 Reboot.o
 __c30_signature
                  0x0000c6          0x6 Regs.o
 __c30_signature
                  0x0000cc          0x6 RSA.o
 __c30_signature
                  0x0000d2          0x6 RTCClib.o
 __c30_signature
                  0x0000d8          0x6 SMTP.o
 __c30_signature
                  0x0000de          0x6 SMTPlib.o
 __c30_signature
                  0x0000e4          0x6 SNTP.o
 __c30_signature
                  0x0000ea          0x6 SPIFlash.o
 __c30_signature
                  0x0000f0          0x6 SSL.o
 __c30_signature
                  0x0000f6          0x6 StackTsk.o
 __c30_signature
                  0x0000fc          0x6 taskFlyport.o
 __c30_signature
                  0x000102          0x6 tasks.o
 __c30_signature
                  0x000108          0x6 TCP.o
 __c30_signature
                  0x00010e          0x6 TCPIP_Utils.o
 __c30_signature
                  0x000114          0x6 TCPlib.o
 __c30_signature
                  0x00011a          0x6 Tick.o
 __c30_signature
                  0x000120          0x6 UDP.o
 __c30_signature
                  0x000126          0x6 UDPlib.o
 __c30_signature
                  0x00012c          0x6 WFConnectionAlgorithm.o
 __c30_signature
                  0x000132          0x6 WFConnectionManager.o
 __c30_signature
                  0x000138          0x6 WFConnectionProfile.o
 __c30_signature
                  0x00013e          0x6 WFDataTxRx.o
 __c30_signature
                  0x000144          0x6 WFDebugStrings.o
 __c30_signature
                  0x00014a          0x6 WFDriverCom.o
 __c30_signature
                  0x000150          0x6 WFDriverCom_24G.o
 __c30_signature
                  0x000156          0x6 WFDriverRaw.o
 __c30_signature
                  0x00015c          0x6 WFDriverRaw_24G.o
 __c30_signature
                  0x000162          0x6 WFEventHandler.o
 __c30_signature
                  0x000168          0x6 WFInit.o
 __c30_signature
                  0x00016e          0x6 WFMac.o
 __c30_signature
                  0x000174          0x6 WFMac_24G.o
 __c30_signature
                  0x00017a          0x6 WFMgmtMsg.o
 __c30_signature
                  0x000180          0x6 WFMgmtMsg_24G.o
 __c30_signature
                  0x000186          0x6 WFParamMsg.o
 __c30_signature
                  0x00018c          0x6 WFParamMsg_24G.o
 __c30_signature
                  0x000192          0x6 WFPowerSave.o
 __c30_signature
                  0x000198          0x6 WFScan.o
 __c30_signature
                  0x00019e          0x6 WFTxPower.o
 __c30_signature
                  0x0001a4          0x6 WF_Config.o
 __c30_signature
                  0x0001aa          0x6 WF_Eint.o
 __c30_signature
                  0x0001b0          0x6 WF_Events.o
 __c30_signature
                  0x0001b6          0x6 WF_Spi.o
 __c30_signature
                  0x0001bc          0x6 WF_Utils.o
 __c30_signature
                  0x0001c2          0x6 x_cJSON.o
 __c30_signature
                  0x0001c8          0x6 x_evrythng.o
 __c30_signature
                  0x0001ce          0x6 x_evrythng_utils.o
 __c30_signature
                  0x0001d4          0x6 x_HTTPlib.o
 __c30_signature
                  0x0001da          0x6 x_timestamp.o
 __c30_signature
                  0x0001e0          0x6 ZeroconfHelper.o
 __c30_signature
                  0x0001e6          0x6 ZeroconfLinkLocal.o
 __c30_signature
                  0x0001ec          0x6 ZeroconfMulticastDNS.o
 __c30_signature
                  0x0001f2          0x6 c:/program files (x86)/microchip/mplab c30/bin/bin/../../lib\libpic30-coff.a(crt0_standard.o)
 __c30_signature
                  0x0001f8          0x6 c:/program files (x86)/microchip/mplab c30/bin/bin/../../lib\libpic30-coff.a(c30_uart.o)
 __c30_signature
                  0x0001fe          0x6 c:/program files (x86)/microchip/mplab c30/bin/bin/../../lib\libpic30-coff.a(flash_helper.o)
 __c30_signature
                  0x000204          0x6 c:/program files (x86)/microchip/mplab c30/bin/bin/../../lib\libpic30-coff.a(data_init_standard.o)
 __c30_signature
                  0x00020a          0x6 c:/program files (x86)/microchip/mplab c30/bin/bin/../../lib\libc-coff.a(memset.o)
 __c30_signature
                  0x000210          0x6 c:/program files (x86)/microchip/mplab c30/bin/bin/../../lib\libc-coff.a(strtok.o)
 __c30_signature
                  0x000216          0x6 c:/program files (x86)/microchip/mplab c30/bin/bin/../../lib\libc-coff.a(strcpy.o)
 __c30_signature
                  0x00021c          0x6 c:/program files (x86)/microchip/mplab c30/bin/bin/../../lib\libc-coff.a(strlen.o)
 __c30_signature
                  0x000222          0x6 c:/program files (x86)/microchip/mplab c30/bin/bin/../../lib\libc-coff.a(strcat.o)
 __c30_signature
                  0x000228          0x6 c:/program files (x86)/microchip/mplab c30/bin/bin/../../lib\libc-coff.a(xstoul.o)
 __c30_signature
                  0x00022e          0x6 c:/program files (x86)/microchip/mplab c30/bin/bin/../../lib\libc-coff.a(strcmp.o)
 __c30_signature
                  0x000234          0x6 c:/program files (x86)/microchip/mplab c30/bin/bin/../../lib\libc-coff.a(rand.o)
 __c30_signature
                  0x00023a          0x6 c:/program files (x86)/microchip/mplab c30/bin/bin/../../lib\libc-coff.a(srand.o)
 __c30_signature
                  0x000240          0x6 c:/program files (x86)/microchip/mplab c30/bin/bin/../../lib\libc-coff.a(memcpy.o)
 __c30_signature
                  0x000246          0x6 c:/program files (x86)/microchip/mplab c30/bin/bin/../../lib\libc-coff.a(strchr.o)
 __c30_signature
                  0x00024c          0x6 c:/program files (x86)/microchip/mplab c30/bin/bin/../../lib\libc-coff.a(strstr.o)
 __c30_signature
                  0x000252          0x6 c:/program files (x86)/microchip/mplab c30/bin/bin/../../lib\libc-coff.a(memcmp.o)
 __c30_signature
                  0x000258          0x6 c:/program files (x86)/microchip/mplab c30/bin/bin/../../lib\libc-coff.a(xstod.o)
 __c30_signature
                  0x00025e          0x6 c:/program files (x86)/microchip/mplab c30/bin/bin/../../lib\libc-coff.a(strncpy.o)
 __c30_signature
                  0x000264          0x6 c:/program files (x86)/microchip/mplab c30/bin/bin/../../lib\libc-coff.a(malloc.o)
 __c30_signature
                  0x00026a          0x6 c:/program files (x86)/microchip/mplab c30/bin/bin/../../lib\libc-coff.a(free.o)
 __c30_signature
                  0x000270          0x6 c:/program files (x86)/microchip/mplab c30/bin/bin/../../lib\libc-coff.a(sprintf.o)
 __c30_signature
                  0x000276          0x6 c:/program files (x86)/microchip/mplab c30/bin/bin/../../lib\libc-coff.a(sscanf.io)
 __c30_signature
                  0x00027c          0x6 c:/program files (x86)/microchip/mplab c30/bin/bin/../../lib\libc-coff.a(strncmp.o)
 __c30_signature
                  0x000282          0x6 c:/program files (x86)/microchip/mplab c30/bin/bin/../../lib\libc-coff.a(localtim.o)
 __c30_signature
                  0x000288          0x6 c:/program files (x86)/microchip/mplab c30/bin/bin/../../lib\libc-coff.a(asctime.o)
 __c30_signature
                  0x00028e          0x6 c:/program files (x86)/microchip/mplab c30/bin/bin/../../lib\libc-coff.a(mktime.o)
 __c30_signature
                  0x000294          0x6 c:/program files (x86)/microchip/mplab c30/bin/bin/../../lib\libc-coff.a(strspn.o)
 __c30_signature
                  0x00029a          0x6 c:/program files (x86)/microchip/mplab c30/bin/bin/../../lib\libc-coff.a(strcspn.o)
 __c30_signature
                  0x0002a0          0x6 c:/program files (x86)/microchip/mplab c30/bin/bin/../../lib\libc-coff.a(memchr.o)
 __c30_signature
                  0x0002a6          0x6 c:/program files (x86)/microchip/mplab c30/bin/bin/../../lib\libc-coff.a(errno.o)
 __c30_signature
                  0x0002ac          0x6 c:/program files (x86)/microchip/mplab c30/bin/bin/../../lib\libc-coff.a(xstopfx.o)
 __c30_signature
                  0x0002b2          0x6 c:/program files (x86)/microchip/mplab c30/bin/bin/../../lib\libc-coff.a(xstoflt.o)
 __c30_signature
                  0x0002b8          0x6 c:/program files (x86)/microchip/mplab c30/bin/bin/../../lib\libc-coff.a(xstoxflt.o)
 __c30_signature
                  0x0002be          0x6 c:/program files (x86)/microchip/mplab c30/bin/bin/../../lib\libc-coff.a(xfdscale.o)
 __c30_signature
                  0x0002c4          0x6 c:/program files (x86)/microchip/mplab c30/bin/bin/../../lib\libc-coff.a(xdtento.o)
 __c30_signature
                  0x0002ca          0x6 c:/program files (x86)/microchip/mplab c30/bin/bin/../../lib\libc-coff.a(xgetmem.o)
 __c30_signature
                  0x0002d0          0x6 c:/program files (x86)/microchip/mplab c30/bin/bin/../../lib\libc-coff.a(xprintf.o)
 __c30_signature
                  0x0002d6          0x6 c:/program files (x86)/microchip/mplab c30/bin/bin/../../lib\libc-coff.a(xscanf.io)
 __c30_signature
                  0x0002dc          0x6 c:/program files (x86)/microchip/mplab c30/bin/bin/../../lib\libc-coff.a(xgetzone.o)
 __c30_signature
                  0x0002e2          0x6 c:/program files (x86)/microchip/mplab c30/bin/bin/../../lib\libc-coff.a(xgettime.o)
 __c30_signature
                  0x0002e8          0x6 c:/program files (x86)/microchip/mplab c30/bin/bin/../../lib\libc-coff.a(strtol.o)
 __c30_signature
                  0x0002ee          0x6 c:/program files (x86)/microchip/mplab c30/bin/bin/../../lib\libc-coff.a(xttotm.o)
 __c30_signature
                  0x0002f4          0x6 c:/program files (x86)/microchip/mplab c30/bin/bin/../../lib\libc-coff.a(xstrftim.o)
 __c30_signature
                  0x0002fa          0x6 c:/program files (x86)/microchip/mplab c30/bin/bin/../../lib\libc-coff.a(xvacopy.o)
 __c30_signature
                  0x000300          0x6 c:/program files (x86)/microchip/mplab c30/bin/bin/../../lib\libc-coff.a(xputtxt.o)
 __c30_signature
                  0x000306          0x6 c:/program files (x86)/microchip/mplab c30/bin/bin/../../lib\libc-coff.a(xfdnorm.o)
 __c30_signature
                  0x00030c          0x6 c:/program files (x86)/microchip/mplab c30/bin/bin/../../lib\libc-coff.a(xfdunsca.o)
 __c30_signature
                  0x000312          0x6 c:/program files (x86)/microchip/mplab c30/bin/bin/../../lib\libc-coff.a(xferaise.o)
 __c30_signature
                  0x000318          0x6 c:/program files (x86)/microchip/mplab c30/bin/bin/../../lib\libc-coff.a(xputfld.o)
 __c30_signature
                  0x00031e          0x6 c:/program files (x86)/microchip/mplab c30/bin/bin/../../lib\libc-coff.a(xgetfld.io)
 __c30_signature
                  0x000324          0x6 c:/program files (x86)/microchip/mplab c30/bin/bin/../../lib\libc-coff.a(xisdst.o)
 __c30_signature
                  0x00032a          0x6 c:/program files (x86)/microchip/mplab c30/bin/bin/../../lib\libc-coff.a(xgentime.o)
 __c30_signature
                  0x000330          0x6 c:/program files (x86)/microchip/mplab c30/bin/bin/../../lib\libc-coff.a(xlitob.o)
 __c30_signature
                  0x000336          0x6 c:/program files (x86)/microchip/mplab c30/bin/bin/../../lib\libc-coff.a(xldtob.o)
 __c30_signature
                  0x00033c          0x6 c:/program files (x86)/microchip/mplab c30/bin/bin/../../lib\libc-coff.a(xgetint.o)
 __c30_signature
                  0x000342          0x6 c:/program files (x86)/microchip/mplab c30/bin/bin/../../lib\libc-coff.a(xgetstr.o)
 __c30_signature
                  0x000348          0x6 c:/program files (x86)/microchip/mplab c30/bin/bin/../../lib\libc-coff.a(xatexit.o)
 __c30_signature
                  0x00034e          0x6 c:/program files (x86)/microchip/mplab c30/bin/bin/../../lib\libc-coff.a(xgetdst.o)
 __c30_signature
                  0x000354          0x6 c:/program files (x86)/microchip/mplab c30/bin/bin/../../lib\libc-coff.a(xldunsca.o)
 __c30_signature
                  0x00035a          0x6 c:/program files (x86)/microchip/mplab c30/bin/bin/../../lib\libc-coff.a(xldscale.o)
 __c30_signature
                  0x000360          0x6 c:/program files (x86)/microchip/mplab c30/bin/bin/../../lib\libc-coff.a(ldiv.o)
 __c30_signature
                  0x000366          0x6 c:/program files (x86)/microchip/mplab c30/bin/bin/../../lib\libc-coff.a(xgenld.o)
 __c30_signature
                  0x00036c          0x6 c:/program files (x86)/microchip/mplab c30/bin/bin/../../lib\libc-coff.a(xstoll.o)
 __c30_signature
                  0x000372          0x6 c:/program files (x86)/microchip/mplab c30/bin/bin/../../lib\libc-coff.a(xstoull.o)
 __c30_signature
                  0x000378          0x6 c:/program files (x86)/microchip/mplab c30/bin/bin/../../lib\libc-coff.a(xdnorm.o)
 __c30_signature
                  0x00037e          0x6 c:/program files (x86)/microchip/mplab c30/bin/bin/../../lib\libc-coff.a(div.o)
 __c30_signature
                  0x000384          0x6 c:/program files (x86)/microchip/mplab c30/bin/bin/../../lib\libm-coff.a(udivsi3.o)
 __c30_signature
                  0x00038a          0x6 c:/program files (x86)/microchip/mplab c30/bin/bin/../../lib\libm-coff.a(divsf3.o)
 __c30_signature
                  0x000390          0x6 c:/program files (x86)/microchip/mplab c30/bin/bin/../../lib\libm-coff.a(fgtge.o)
 __c30_signature
                  0x000396          0x6 c:/program files (x86)/microchip/mplab c30/bin/bin/../../lib\libm-coff.a(fixunssfsi.o)
 __c30_signature
                  0x00039c          0x6 c:/program files (x86)/microchip/mplab c30/bin/bin/../../lib\libm-coff.a(floatsisf.o)
 __c30_signature
                  0x0003a2          0x6 c:/program files (x86)/microchip/mplab c30/bin/bin/../../lib\libm-coff.a(addsf3.o)
 __c30_signature
                  0x0003a8          0x6 c:/program files (x86)/microchip/mplab c30/bin/bin/../../lib\libm-coff.a(mulsf3.o)
 __c30_signature
                  0x0003ae          0x6 c:/program files (x86)/microchip/mplab c30/bin/bin/../../lib\libm-coff.a(feqltle.o)
 __c30_signature
                  0x0003b4          0x6 c:/program files (x86)/microchip/mplab c30/bin/bin/../../lib\libm-coff.a(divmoddi3.o)
 __c30_signature
                  0x0003ba          0x6 c:/program files (x86)/microchip/mplab c30/bin/bin/../../lib\libm-coff.a(muldi3.o)
 __c30_signature
                  0x0003c0          0x6 c:/program files (x86)/microchip/mplab c30/bin/bin/../../lib\libm-coff.a(powf.o)
 __c30_signature
                  0x0003c6          0x6 c:/program files (x86)/microchip/mplab c30/bin/bin/../../lib\libm-coff.a(fixsfsi.o)
 __c30_signature
                  0x0003cc          0x6 c:/program files (x86)/microchip/mplab c30/bin/bin/../../lib\libm-coff.a(floorf.o)
 __c30_signature
                  0x0003d2          0x6 c:/program files (x86)/microchip/mplab c30/bin/bin/../../lib\libm-coff.a(mulsi3.o)
 __c30_signature
                  0x0003d8          0x6 c:/program files (x86)/microchip/mplab c30/bin/bin/../../lib\libm-coff.a(divsi3.o)
 __c30_signature
                  0x0003de          0x6 c:/program files (x86)/microchip/mplab c30/bin/bin/../../lib\libm-coff.a(floatdisf.o)
 __c30_signature
                  0x0003e4          0x6 c:/program files (x86)/microchip/mplab c30/bin/bin/../../lib\libm-coff.a(modsi3.o)
 __c30_signature
                  0x0003ea          0x6 c:/program files (x86)/microchip/mplab c30/bin/bin/../../lib\libm-coff.a(umodsi3.o)
 __c30_signature
                  0x0003f0          0x6 c:/program files (x86)/microchip/mplab c30/bin/bin/../../lib\libm-coff.a(extendsfdf.o)
 __c30_signature
                  0x0003f6          0x6 c:/program files (x86)/microchip/mplab c30/bin/bin/../../lib\libm-coff.a(deqltle.o)
 __c30_signature
                  0x0003fc          0x6 c:/program files (x86)/microchip/mplab c30/bin/bin/../../lib\libm-coff.a(fixdfsi.o)
 __c30_signature
                  0x000402          0x6 c:/program files (x86)/microchip/mplab c30/bin/bin/../../lib\libm-coff.a(floatsidf.o)
 __c30_signature
                  0x000408          0x6 c:/program files (x86)/microchip/mplab c30/bin/bin/../../lib\libm-coff.a(subdf3.o)
 __c30_signature
                  0x00040e          0x6 c:/program files (x86)/microchip/mplab c30/bin/bin/../../lib\libm-coff.a(dgtge.o)
 __c30_signature
                  0x000414          0x6 c:/program files (x86)/microchip/mplab c30/bin/bin/../../lib\libm-coff.a(muldf3.o)
 __c30_signature
                  0x00041a          0x6 c:/program files (x86)/microchip/mplab c30/bin/bin/../../lib\libm-coff.a(divdf3.o)
 __c30_signature
                  0x000420          0x6 c:/program files (x86)/microchip/mplab c30/bin/bin/../../lib\libm-coff.a(funpack2.o)
 __c30_signature
                  0x000426          0x6 c:/program files (x86)/microchip/mplab c30/bin/bin/../../lib\libm-coff.a(futil.o)
 __c30_signature
                  0x00042c          0x6 c:/program files (x86)/microchip/mplab c30/bin/bin/../../lib\libm-coff.a(fpack.o)
 __c30_signature
                  0x000432          0x6 c:/program files (x86)/microchip/mplab c30/bin/bin/../../lib\libm-coff.a(fcompare.o)
 __c30_signature
                  0x000438          0x6 c:/program files (x86)/microchip/mplab c30/bin/bin/../../lib\libm-coff.a(funpack.o)
 __c30_signature
                  0x00043e          0x6 c:/program files (x86)/microchip/mplab c30/bin/bin/../../lib\libm-coff.a(umuldi3.o)
 __c30_signature
                  0x000444          0x6 c:/program files (x86)/microchip/mplab c30/bin/bin/../../lib\libm-coff.a(fchop.o)
 __c30_signature
                  0x00044a          0x6 c:/program files (x86)/microchip/mplab c30/bin/bin/../../lib\libm-coff.a(_frexpf.o)
 __c30_signature
                  0x000450          0x6 c:/program files (x86)/microchip/mplab c30/bin/bin/../../lib\libm-coff.a(ldexpf.o)
 __c30_signature
                  0x000456          0x6 c:/program files (x86)/microchip/mplab c30/bin/bin/../../lib\libm-coff.a(logf.o)
 __c30_signature
                  0x00045c          0x6 c:/program files (x86)/microchip/mplab c30/bin/bin/../../lib\libm-coff.a(expf.o)
 __c30_signature
                  0x000462          0x6 c:/program files (x86)/microchip/mplab c30/bin/bin/../../lib\libm-coff.a(dcompare.o)
 __c30_signature
                  0x000468          0x6 c:/program files (x86)/microchip/mplab c30/bin/bin/../../lib\libm-coff.a(dunpack.o)
 __c30_signature
                  0x00046e          0x6 c:/program files (x86)/microchip/mplab c30/bin/bin/../../lib\libm-coff.a(dunpack2.o)
 __c30_signature
                  0x000474          0x6 c:/program files (x86)/microchip/mplab c30/bin/bin/../../lib\libm-coff.a(floatdidf.o)
 __c30_signature
                  0x00047a          0x6 c:/program files (x86)/microchip/mplab c30/bin/bin/../../lib\libm-coff.a(adddf3.o)
 __c30_signature
                  0x000480          0x6 c:/program files (x86)/microchip/mplab c30/bin/bin/../../lib\libm-coff.a(dpack.o)
 __c30_signature
                  0x000486          0x6 c:/program files (x86)/microchip/mplab c30/bin/bin/../../lib\libm-coff.a(dtype.o)
 __c30_signature
                  0x00048c          0x6 c:/program files (x86)/microchip/mplab c30/bin/bin/../../lib\libm-coff.a(dpropagateNaN.o)
 __c30_signature
                  0x000492          0x6 c:/program files (x86)/microchip/mplab c30/bin/bin/../../lib\libpic30-coff.a(sbrk.o)
 __c30_signature
                  0x000498          0x6 c:/program files (x86)/microchip/mplab c30/bin/bin/../../lib\libpic30-coff.a(getenv.o)
 __c30_signature
                  0x00049e          0x6 c:/program files (x86)/microchip/mplab c30/bin/bin/../../lib\libpic30-coff.a(brk.o)

BigInt_helper_vars
                    0x0800          0xc
 BigInt_helper_vars
                    0x0800          0xc BigInt_helper.o
                    0x0800                  _iA
                    0x0802                  _xA
                    0x0804                  _iB
                    0x0806                  _xB
                    0x0808                  _iR
                    0x080a                  _wC

.bss                0x080c       0x268c
 .bss               0x080c       0x1392 heap_2.o
 .bss               0x1b9e        0x48e HWlib.o
                    0x2022                  TimerOn
 .bss               0x202c        0x41a x_evrythng.o
                    0x202c                  respHeader
                    0x2252                  respBody
 .bss               0x2446        0x3f6 Main.o
                    0x24a4                  AppConfig
                    0x254e                  xIPAddress
                    0x25b2                  xWord
                    0x25b4                  xChar
                    0x25b6                  xByte
                    0x25b8                  xByte2
                    0x25b9                  xByte3
                    0x25ba                  xInt
                    0x25bc                  xInt2
                    0x25be                  xNode
                    0x25c8                  xQueue
                    0x25ca                  BUFFER_UDP_LEN
                    0x25cc                  udpBuffer
                    0x25ce                  udpRxLenGlobal
                    0x25d0                  udpSocket
                    0x25d2                  xUDPPort
                    0x25d4                  p_udp_data
                    0x25d6                  p_udp_wifiram
                    0x25d8                  xUDPRemoteHost
                    0x25dc                  udpWord
                    0x25de                  udpInt
                    0x25e0                  udpByte
                    0x25e2                  UDPoverflowFlag
                    0x25e4                  NETConf
                    0x2738                  WFStatusold
                    0x273a                  xNet
                    0x2768                  udpRxLen
                    0x276a                  udpBuffer1
                    0x2832                  tmp_len
                    0x2834                  hTCPIPTask
                    0x2836                  hFlyTask
                    0x2838                  hTimerTask
                    0x283a                  xStatus
 .bss               0x283c        0x338 RSA.o
                    0x2858                  E
                    0x2860                  N
                    0x2868                  Y
                    0x2870                  rsaData
                    0x2970                  eData
                    0x2974                  rsaTemp
 .bss               0x2b74        0x324 SSL.o
                    0x2bd6                  sslBuffer
                    0x2dd6                  sslHash
                    0x2e30                  sslSession
                    0x2e80                  sslSessionStubs
                    0x2e90                  ptrHS
                    0x2e92                  isStubUsed
                    0x2e94                  isHashUsed
                    0x2e96                  isBufferUsed

.data               0x2e98        0x2ea
 .data              0x2e98        0x2ea Regs.o
                    0x2e98                  LATs
                    0x2ecc                  TRISs
                    0x2f00                  PORTs
                    0x2f34                  CNPUs
                    0x2f68                  CNPDs
                    0x2f9c                  CNPos
                    0x2fd0                  IOPos
                    0x3004                  an
                    0x300e                  UMODEs
                    0x3016                  USTAs
                    0x301e                  UBRGs
                    0x3026                  UIFSs
                    0x302e                  UIECs
                    0x3036                  UTXREGs
                    0x303e                  URXREGs
                    0x3046                  UTXIPos
                    0x304e                  URXIPos
                    0x3056                  AD1CFGL
                    0x3058                  AD1CFGH
                    0x305a                  AD1CONF1
                    0x305c                  AD1CONF2
                    0x305e                  AD1CONF3
                    0x3060                  AD1CH
                    0x3062                  AD1CSL
                    0x3064                  OCCON1s
                    0x3076                  OCCON2s
                    0x3088                  OCRs
                    0x309a                  OCRSs
                    0x30ac                  RPORs
                    0x30e0                  RPFunc
                    0x30f6                  RPIORPin
                    0x312a                  TCONs
                    0x3134                  OCM
                    0x3146                  RPIRs
                    0x3164                  RPIRPos

.bss                0x3182        0x192
 .bss               0x3182        0x192 TCP.o

.data               0x3314        0x2d6
 .data              0x3314        0x16c c:/program files (x86)/microchip/mplab c30/bin/bin/../../lib\libc-coff.a(asctime.o)
                    0x3314                  _Tls_setup__Times
                    0x3316                  _Times
 .data              0x3480        0x16a WFDebugStrings.o
                    0x3480                  connectionFailureStrings
                    0x34a8                  connectionLostStrings
                    0x34b4                  deauthDisssocReasonCodes
                    0x34e6                  statusCodes
                    0x3546                  wpsState
                    0x3564                  wpsConfigErr
                    0x35ba                  moduleName

.bss                0x35ea        0x222
 .bss               0x35ea         0x88 c:/program files (x86)/microchip/mplab c30/bin/bin/../../lib\libc-coff.a(rand.o)
 .bss               0x3672         0x74 tasks.o
 .bss               0x36e6         0x70 Random.o
 .bss               0x3756         0x6c UDP.o
                    0x375c                  UDPSocketInfo
                    0x37bc                  activeUDPSocket
                    0x37be                  UDPTxCount
                    0x37c0                  UDPRxCount
 .bss               0x37c2         0x4a x_timestamp.o
                    0x37c2                  epochString
                    0x37f4                  now
                    0x37f8                  ts
                    0x37fa                  mytime

.data               0x380c         0xdc
 .data              0x380c         0x4a c:/program files (x86)/microchip/mplab c30/bin/bin/../../lib\libc-coff.a(xstoul.o)
 .data              0x3856         0x4a c:/program files (x86)/microchip/mplab c30/bin/bin/../../lib\libc-coff.a(xstoull.o)
 .data              0x38a0         0x48 c:/program files (x86)/microchip/mplab c30/bin/bin/../../lib\libc-coff.a(xldtob.o)

.bss                0x38e8         0xb0
 .bss               0x38e8         0x40 Hashes.o
                    0x38e8                  lastBlock
 .bss               0x3928         0x3c SMTP.o
                    0x394a                  SMTPClient
 .bss               0x3964         0x34 Regs.o
                    0x3964                  IOMode

.dconst             0x3998         0x32
 .dconst            0x3998         0x32 c:/program files (x86)/microchip/mplab c30/bin/bin/../../lib\libc-coff.a(xldtob.o)

.data               0x39ca         0x5e
 .data              0x39ca         0x30 c:/program files (x86)/microchip/mplab c30/bin/bin/../../lib\libc-coff.a(xttotm.o)
 .data              0x39fa         0x2e c:/program files (x86)/microchip/mplab c30/bin/bin/../../lib\libc-coff.a(xstoxflt.o)

.dconst             0x3a28         0x2a
 .dconst            0x3a28         0x2a c:/program files (x86)/microchip/mplab c30/bin/bin/../../lib\libc-coff.a(xgentime.o)

.bss                0x3a52         0x28
 .bss               0x3a52         0x28 DHCP.o

.data               0x3a7a         0x90
 .data              0x3a7a         0x28 Main.o
                    0x3a7a                  ConnectionProfileID
                    0x3a7c                  _WFStat
                    0x3a7e                  WFConnection
                    0x3a80                  xTCPPort
                    0x3a82                  xSocket
                    0x3a84                  xFrontEndStat
                    0x3a86                  xFrontEndStatRet
                    0x3a88                  xErr
                    0x3a8a                  xBool
                    0x3a8c                  WPAWrong
                    0x3a8e                  numUdpSocket
                    0x3a90                  xUDPLocalPort
                    0x3a92                  xUDPRemotePort
                    0x3a94                  activeUdpSocket
                    0x3a95                  callbackUdpSocket
                    0x3a96                  udpErr
                    0x3a98                  udpBool
                    0x3a9a                  datadiscard
                    0x3a9c                  UDPoverflow
                    0x3a9e                  xSemFrontEnd
                    0x3aa0                  xSemHW
 .data              0x3aa2         0x26 c:/program files (x86)/microchip/mplab c30/bin/bin/../../lib\libc-coff.a(xgetint.o)
 .data              0x3ac8         0x22 c:/program files (x86)/microchip/mplab c30/bin/bin/../../lib\libc-coff.a(xlitob.o)
 .data              0x3aea         0x20 c:/program files (x86)/microchip/mplab c30/bin/bin/../../lib\libc-coff.a(xstoflt.o)

.bss                0x3b0a         0x36
 .bss               0x3b0a         0x1c c:/program files (x86)/microchip/mplab c30/bin/bin/../../lib\libc-coff.a(asctime.o)
 .bss               0x3b26         0x1a WFMac_24G.o
                    0x3b3c                  g_rxBufferLength
                    0x3b3e                  WF_hibernate

.data               0x3b40         0x1a
 .data              0x3b40         0x1a x_HTTPlib.o

.bss                0x3b5a         0x18
 .bss               0x3b5a         0x18 DNS.o

.data               0x3b72         0x18
 .data              0x3b72         0x18 c:/program files (x86)/microchip/mplab c30/bin/bin/../../lib\libc-coff.a(xdtento.o)

.bss                0x3b8a         0x40
 .bss               0x3b8a         0x16 ARP.o
 .bss               0x3ba0         0x16 WFDriverCom_24G.o
                    0x3bb2                  RawMoveState
 .bss               0x3bb6         0x14 c:/program files (x86)/microchip/mplab c30/bin/bin/../../lib\libc-coff.a(xttotm.o)

.data               0x3bca         0x24
 .data              0x3bca         0x12 c:/program files (x86)/microchip/mplab c30/bin/bin/../../lib\libc-coff.a(xprintf.o)
 .data              0x3bdc         0x12 c:/program files (x86)/microchip/mplab c30/bin/bin/../../lib\libc-coff.a(xgetzone.o)

.bss                0x3bee         0x1e
 .bss               0x3bee         0x10 StackTsk.o
                    0x3bf4                  remoteNode
 .bss               0x3bfe          0xe SNTP.o

.dconst             0x3c0c          0xe
 .dconst            0x3c0c          0xe c:/program files (x86)/microchip/mplab c30/bin/bin/../../lib\libc-coff.a(xgetzone.o)

.bss                0x3c1a         0x18
 .bss               0x3c1a          0xc FTPlib.o
 .bss               0x3c26          0xc UDPlib.o

.dconst             0x3c32          0xc
 .dconst            0x3c32          0xc c:/program files (x86)/microchip/mplab c30/bin/bin/../../lib\libc-coff.a(xscanf.io)

.bss                0x3c3e          0xa
 .bss               0x3c3e          0xa Tick.o

.data               0x3c48         0x14
 .data              0x3c48          0xa x_timestamp.o
                    0x3c48                  epoch
                    0x3c4c                  epochtime
                    0x3c50                  GMT_hour_adding
 .data              0x3c52          0xa c:/program files (x86)/microchip/mplab c30/bin/bin/../../lib\libc-coff.a(rand.o)
                    0x3c52                  _Tls_setup__Randseed
                    0x3c54                  _Randseed
                    0x3c58                  _Tls_setup__Randinit
                    0x3c5a                  _Randinit

.bss                0x3c5c          0xa
 .bss               0x3c5c          0xa c:/program files (x86)/microchip/mplab c30/bin/bin/../../lib\libc-coff.a(localtim.o)

.data               0x3c66         0x10
 .data              0x3c66          0x8 StackTsk.o
                    0x3c66                  DHCPAssigned
                    0x3c68                  g_DhcpRenew
                    0x3c6a                  g_DhcpRetryTimer
 .data              0x3c6e          0x8 WFDriverCom_24G.o
                    0x3c6e                  g_DhcpSuccessful
                    0x3c70                  g_WiFiConnectionChanged
                    0x3c72                  g_WiFiConnection
                    0x3c74                  g_dhcpInProgress

.bss                0x3c76          0x8
 .bss               0x3c76          0x8 WFPowerSave.o
                    0x3c7c                  g_rxDtim

.dconst             0x3c7e          0x8
 .dconst            0x3c7e          0x8 c:/program files (x86)/microchip/mplab c30/bin/bin/../../lib\libc-coff.a(xprintf.o)

.bss                0x3c86         0x1a
 .bss               0x3c86          0x8 c:/program files (x86)/microchip/mplab c30/bin/bin/../../lib\libc-coff.a(xisdst.o)
 .bss               0x3c8e          0x6 INTlib.o
                    0x3c8e                  isr_int2
                    0x3c90                  isr_int3
                    0x3c92                  isr_int4
 .bss               0x3c94          0x6 RTCClib.o
                    0x3c98                  arpt
 .bss               0x3c9a          0x6 SPIFlash.o

.data               0x3ca0          0xe
 .data              0x3ca0          0x6 c:/program files (x86)/microchip/mplab c30/bin/bin/../../lib\libc-coff.a(malloc.o)
                    0x3ca0                  _Size_block
                    0x3ca2                  _Aldata
 .data              0x3ca6          0x4 DNS.o
 .data              0x3caa          0x4 Helpers.o

.bss                0x3cae          0x4
 .bss               0x3cae          0x4 IP.o

.data               0x3cb2          0x8
 .data              0x3cb2          0x4 WFDriverRaw_24G.o
                    0x3cb2                  g_HostRAWDataPacketReceived
                    0x3cb4                  g_RawIndexPastEnd
 .data              0x3cb6          0x4 WFMac_24G.o
                    0x3cb6                  WFArpBroadcastIntervalSec

.bss                0x3cba          0x4
 .bss               0x3cba          0x4 WFMgmtMsg_24G.o

.data               0x3cbe          0x4
 .data              0x3cbe          0x4 x_cJSON.o

.dconst             0x3cc2          0x4
 .dconst            0x3cc2          0x4 c:/program files (x86)/microchip/mplab c30/bin/bin/../../lib\libc-coff.a(asctime.o)

.data               0x3cc6          0x4
 .data              0x3cc6          0x4 c:/program files (x86)/microchip/mplab c30/bin/bin/../../lib\libc-coff.a(errno.o)
                    0x3cc6                  _Tls_setup_errno
                    0x3cc8                  errno

.bss                0x3cca          0x6
 .bss               0x3cca          0x4 c:/program files (x86)/microchip/mplab c30/bin/bin/../../lib\libc-coff.a(xgetzone.o)
 .bss               0x3cce          0x2 ARPlib.o

.data               0x3cd0          0x2
 .data              0x3cd0          0x2 DHCP.o
                    0x3cd0                  DHCPClientInitializedOnce

.pbss               0x3cd2          0x2
 .pbss              0x3cd2          0x2 DNS.o

.data               0x3cd4          0x6
 .data              0x3cd4          0x2 FTPlib.o
 .data              0x3cd6          0x2 heap_2.o
 .data              0x3cd8          0x2 HWlib.o

.bss                0x3cda          0x2
 .bss               0x3cda          0x2 NETlib.o

.data               0x3cdc          0x6
 .data              0x3cdc          0x2 port.o
                    0x3cdc                  uxCriticalNesting
 .data              0x3cde          0x2 RTCClib.o
                    0x3cde                  alarmflag
 .data              0x3ce0          0x2 SMTP.o

.bss                0x3ce2          0x2
 .bss               0x3ce2          0x2 SMTPlib.o

.data               0x3ce4          0x6
 .data              0x3ce4          0x2 SNTP.o
 .data              0x3ce6          0x2 tasks.o
                    0x3ce6                  pxCurrentTCB
 .data              0x3ce8          0x2 TCP.o

.pbss               0x3cea          0x2
 .pbss              0x3cea          0x2 TCP.o

.bss                0x3cec          0x2
 .bss               0x3cec          0x2 TCPlib.o

.data               0x3cee          0x2
 .data              0x3cee          0x2 UDP.o

.pbss               0x3cf0          0x2
 .pbss              0x3cf0          0x2 UDP.o

.data               0x3cf2          0x2
 .data              0x3cf2          0x2 WFConnectionAlgorithm.o

.bss                0x3cf4          0x4
 .bss               0x3cf4          0x2 WFConnectionManager.o
 .bss               0x3cf6          0x2 WFDriverRaw_24G.o
                    0x3cf6                  RawWindowState

.data               0x3cf8          0x6
 .data              0x3cf8          0x2 WFMgmtMsg_24G.o
                    0x3cf8                  g_WaitingForMgmtResponse
 .data              0x3cfa          0x2 WFPowerSave.o
 .data              0x3cfc          0x2 WF_Config.o
                    0x3cfc                  WFNetworkFound

.bss                0x3cfe          0x2
 .bss               0x3cfe          0x2 WF_Config.o
                    0x3cfe                  myRSSI

.data               0x3d00          0x2
 .data              0x3d00          0x2 WF_Events.o
                    0x3d00                  ScanCompleted

.bss                0x3d02          0x4
 .bss               0x3d02          0x2 WF_Spi.o
 .bss               0x3d04          0x2 x_cJSON.o

.data               0x3d06          0x6
 .data              0x3d06          0x2 x_evrythng.o
                    0x3d06                  socket
 .data              0x3d08          0x2 c:/program files (x86)/microchip/mplab c30/bin/bin/../../lib\libpic30-coff.a(c30_uart.o)
                    0x3d08                  __C30_UART
 .data              0x3d0a          0x2 c:/program files (x86)/microchip/mplab c30/bin/bin/../../lib\libc-coff.a(strtok.o)

.bss                0x3d0c          0x2
 .bss               0x3d0c          0x2 c:/program files (x86)/microchip/mplab c30/bin/bin/../../lib\libc-coff.a(strtok.o)

.dconst             0x3d0e          0x2
 .dconst            0x3d0e          0x2 c:/program files (x86)/microchip/mplab c30/bin/bin/../../lib\libc-coff.a(strtok.o)

.data               0x3d10          0x4
 .data              0x3d10          0x2 c:/program files (x86)/microchip/mplab c30/bin/bin/../../lib\libc-coff.a(xisdst.o)
 .data              0x3d12          0x2 c:/program files (x86)/microchip/mplab c30/bin/bin/../../lib\libc-coff.a(ldiv.o)

.dconst             0x3d14          0x2
 .dconst            0x3d14          0x2 c:/program files (x86)/microchip/mplab c30/bin/bin/../../lib\libc-coff.a(xgenld.o)

.data               0x3d16          0x2
 .data              0x3d16          0x2 c:/program files (x86)/microchip/mplab c30/bin/bin/../../lib\libc-coff.a(div.o)

.bss                0x3d18          0x2
 .bss               0x3d18          0x2 c:/program files (x86)/microchip/mplab c30/bin/bin/../../lib\libpic30-coff.a(brk.o)
                    0x3d18                  __curbrk

my_heap             0x3d1a        0x4ce
 my_heap            0x3d1a        0x4ce x_heap.o

.const              0xcae2       0x1a5e load address 0x004ae2  
 .const             0xcae2        0xeae WFDebugStrings.o
 .const             0xd990        0x1d4 FTPlib.o
 .const             0xdb64        0x140 Hashes.o
 .const             0xdca4        0x13c taskFlyport.o
 .const             0xdde0         0xe2 x_evrythng.o
 .const             0xdec2         0xd8 WFMgmtMsg_24G.o
 .const             0xdf9a         0xca ISRs.o
 .const             0xe064         0xc8 x_HTTPlib.o
 .const             0xe12c         0x86 SMTP.o
 .const             0xe1b2         0x6c WF_Events.o
 .const             0xe21e         0x68 Main.o
 .const             0xe286         0x66 x_evrythng_utils.o
 .const             0xe2ec         0x5a TCP.o
                    0xe2ec                  TCPSocketInitializer
 .const             0xe346         0x4c SSL.o
 .const             0xe392         0x46 NETlib.o
 .const             0xe3d8         0x46 WFDriverRaw_24G.o
                    0xe414                  g_RawAccessOutOfBoundsMask
 .const             0xe41e         0x3a x_cJSON.o
 .const             0xe458         0x38 TCPIP_Utils.o
 .const             0xe490         0x22 x_timestamp.o
 .const             0xe4b2         0x20 port.o
 .const             0xe4d2         0x1e WF_Utils.o
 .const             0xe4f0         0x1a DHCP.o
 .const             0xe50a          0xe Helpers.o
 .const             0xe518          0xe SNTP.o
 .const             0xe526          0xc TCPlib.o
 .const             0xe532          0x6 tasks.o
 .const             0xe538          0x6 WFInit.o
 .const             0xe53e          0x2 heap_2.o

.text             0x006540       0xdffe
 .text            0x006540       0x2d46 TCP.o
                  0x0065f8                  TCPInit
                  0x0066d4                  TCPOpen
                  0x006828                  TCPWasReset
                  0x00685c                  TCPIsConnected
                  0x006884                  TCPDisconnect
                  0x006948                  TCPClose
                  0x006964                  TCPGetRemoteInfo
                  0x006990                  TCPFlush
                  0x0069b2                  TCPIsPutReady
                  0x006a46                  TCPPut
                  0x006b12                  TCPPutArray
                  0x006c4a                  TCPPutString
                  0x006c68                  TCPGetTxFIFOFull
                  0x006c96                  TCPDiscard
                  0x006cb4                  TCPIsGetReady
                  0x006cf2                  TCPGet
                  0x006d64                  TCPGetArray
                  0x006e28                  TCPGetRxFIFOFree
                  0x006e6c                  TCPPeekArray
                  0x006f16                  TCPPeek
                  0x006f2e                  TCPFindArrayEx
                  0x0071b8                  TCPFindEx
                  0x0071d6                  TCPTick
                  0x0076aa                  TCPProcess
                  0x0088c8                  TCPAdjustFIFOSize
                  0x008b46                  TCPStartSSLClient
                  0x008bc6                  TCPStartSSLClientEx
                  0x008c4a                  TCPRequestSSLMessage
                  0x008c84                  TCPSSLIsHandshaking
                  0x008ca8                  TCPIsSSL
                  0x008cd4                  TCPSSLHandshakeComplete
                  0x008cec                  TCPSSLDecryptMAC
                  0x008dfa                  TCPSSLInPlaceMACEncrypt
                  0x008f08                  TCPSSLPutRecordHeader
                  0x008f88                  TCPSSLGetPendingTxSize
                  0x008fc8                  TCPSSLHandleIncoming
 .text            0x009286       0x184a SSL.o
                  0x009286                  SSLInit
                  0x0092ea                  SSLPeriodic
                  0x009338                  SSLStartSession
                  0x00942c                  SSLTerminate
                  0x009462                  SSLRxRecord
                  0x0095ec                  SSLTxRecord
                  0x009684                  SSLTxMessage
                  0x009720                  SSLRxHandshake
                  0x00a9e6                  SSLMACBegin
                  0x00aa70                  SSLMACAdd
                  0x00aa84                  SSLMACCalc
 .text            0x00aad0       0x1842 x_cJSON.o
                  0x00aad0                  cJSON_GetErrorPtr
                  0x00abba                  cJSON_Delete
                  0x00b4d6                  cJSON_Parse
                  0x00b50e                  cJSON_Print
                  0x00b51e                  cJSON_PrintUnformatted
                  0x00bdbe                  cJSON_GetArraySize
                  0x00bde2                  cJSON_GetArrayItem
                  0x00be0a                  cJSON_GetObjectItem
                  0x00be90                  cJSON_AddItemToArray
                  0x00bec8                  cJSON_AddItemToObject
                  0x00befa                  cJSON_AddItemReferenceToArray
                  0x00bf0e                  cJSON_AddItemReferenceToObject
                  0x00bf26                  cJSON_DetachItemFromArray
                  0x00bf9e                  cJSON_DeleteItemFromArray
                  0x00bfb0                  cJSON_DetachItemFromObject
                  0x00bff4                  cJSON_DeleteItemFromObject
                  0x00c006                  cJSON_ReplaceItemInArray
                  0x00c07c                  cJSON_ReplaceItemInObject
                  0x00c0c4                  cJSON_CreateNull
                  0x00c0da                  cJSON_CreateTrue
                  0x00c0f0                  cJSON_CreateFalse
                  0x00c106                  cJSON_CreateBool
                  0x00c12c                  cJSON_CreateNumber
                  0x00c15e                  cJSON_CreateString
                  0x00c180                  cJSON_CreateArray
                  0x00c196                  cJSON_CreateObject
                  0x00c1ac                  cJSON_CreateIntArray
                  0x00c20a                  cJSON_CreateFloatArray
                  0x00c262                  cJSON_CreateDoubleArray
                  0x00c2ba                  cJSON_CreateStringArray
 .text            0x00c312       0x1766 HWlib.o
                  0x00c312                  _dbgwrite
                  0x00c320                  ADCInit
                  0x00c348                  _ADC1Interrupt
                  0x00c35c                  ADCVal
                  0x00c380                  ADCAttach
                  0x00c3b0                  ADCDetach
                  0x00c3d8                  IOPut
                  0x00c4f4                  IOInit
                  0x00c9fa                  IOGet
                  0x00ca78                  IOButtonState
                  0x00cb36                  PowerLed
                  0x00cb76                  UARTInit
                  0x00ccf4                  UARTOn
                  0x00cdca                  UARTOff
                  0x00ce58                  UARTRxInt
                  0x00cf56                  UARTFlush
                  0x00cf82                  UARTBufferSize
                  0x00d016                  UARTRead
                  0x00d0d8                  UARTWrite
                  0x00d170                  UARTWriteCh
                  0x00d1e6                  PWMInit
                  0x00d45e                  PWMOn
                  0x00d59a                  PWMDuty
                  0x00d610                  PWMOff
                  0x00d628                  I2CInit
                  0x00d644                  I2CStart
                  0x00d686                  I2CRestart
                  0x00d6c8                  I2CStop
                  0x00d70a                  I2CGetDevAck
                  0x00d748                  I2CTimeout
                  0x00d758                  I2CAddrSizeSet
                  0x00d77e                  I2CAddrSizeGet
                  0x00d78a                  I2CWrite
                  0x00d80c                  I2CRead
                  0x00d8b2                  I2CReadReg
                  0x00d916                  I2CReadMulti
                  0x00d9d0                  I2CWriteReg
                  0x00da16                  I2CWriteMulti
 .text            0x00da78       0x102c SMTP.o
                  0x00da78                  SMTPBeginUsage
                  0x00dade                  SMTPEndUsage
                  0x00db38                  SMTPTask
                  0x00e7c4                  SMTPSendMail
                  0x00e7d4                  SMTPIsBusy
                  0x00e7ea                  SMTPIsPutReady
                  0x00e808                  SMTPPut
                  0x00e8ac                  SMTPPutArray
                  0x00e8e8                  SMTPPutString
                  0x00e91e                  SMTPFlush
                  0x00e92c                  SMTPPutDone
 .text            0x00eaa4        0xeb0 FTPlib.o
                  0x00eaa4                  FTPClientOpen
                  0x00eabc                  FTPRead
                  0x00ead2                  FTPWrite
                  0x00eae8                  FTPClose
                  0x00eafa                  FTPisConn
                  0x00eb08                  FTPRxLen
                  0x00eb16                  FTPClientPasv
                  0x00ecda                  FTPSendCmd
                  0x00ed80                  FTPConnect
                  0x00efec                  FTPFileCheck
                  0x00f082                  FTPFileSize
                  0x00f12c                  FTPStore
                  0x00f142                  FTPAppend
                  0x00f32a                  FTPStreamOpen
                  0x00f4b0                  FTPStreamWrite
                  0x00f582                  FTPStreamRead
                  0x00f6f8                  FTPStreamClose
                  0x00f718                  FTPStreamStat
                  0x00f722                  FTPAnswer
                  0x00f77e                  FTPRxFlush
                  0x00f83a                  FTPRxRead
 .text            0x00f954        0xc54 Hashes.o
                  0x00f954                  HashAddData
                  0x00f980                  MD5Initialize
                  0x00f9bc                  MD5AddData
                  0x00fcbe                  MD5Calculate
                  0x00fe42                  SHA1Initialize
                  0x00fe88                  SHA1AddData
                  0x01030e                  SHA1Calculate
 .text            0x0105a8        0xc12 NETlib.o
                  0x0105a8                  WFGetPSK
                  0x01064e                  cWFGetPSK
                  0x0106a2                  NETCustomSave
                  0x010780                  NETCustomDelete
                  0x0107ce                  NETCustomExist
                  0x0107fc                  NETCustomLoad
                  0x010894                  NETSetParam
                  0x010a42                  WFGeneric
                  0x010ad8                  WFConnect
                  0x010b76                  WFDisconnect
                  0x010b96                  WFScan
                  0x010bb2                  RSSIUpdate
                  0x010bdc                  cRSSIUpdate
                  0x010c3a                  RSSIValue
                  0x010c46                  RSSIStatus
                  0x010c68                  WFScanList
                  0x010d3c                  WFStopConnecting
                  0x010dd4                  WFSetChannel
                  0x010e3c                  WFSetSecurity
                  0x010e88                  WFHibernate
                  0x010eb4                  WFSleep
                  0x010eec                  WFOn
                  0x010f1e                  WFPsPollEnable
                  0x010fd4                  cWFDisconnect
                  0x010ff4                  cWFScan
                  0x011080                  cWFScanList
                  0x01114c                  WFGetStat
                  0x011154                  cWFStopConnecting
                  0x01118c                  cWFConnect
                  0x0111a0                  cWFPsPollDisable
                  0x0111ac                  cWFPsPollEnable
 .text            0x0111ba        0xb96 tasks.o
                  0x0111ba                  xTaskGenericCreate
                  0x0112b0                  vTaskDelete
                  0x01131c                  vTaskDelayUntil
                  0x0113b4                  vTaskDelay
                  0x011410                  vTaskPrioritySet
                  0x0114e8                  vTaskSuspend
                  0x011542                  xTaskIsTaskSuspended
                  0x011574                  vTaskResume
                  0x0115d6                  xTaskResumeFromISR
                  0x011640                  vTaskStartScheduler
                  0x011674                  vTaskEndScheduler
                  0x01168a                  vTaskSuspendAll
                  0x011696                  xTaskResumeAll
                  0x011758                  xTaskGetTickCount
                  0x01176c                  uxTaskGetNumberOfTasks
                  0x011774                  vTaskIncrementTick
                  0x011810                  vTaskCleanUpResources
                  0x01193a                  vTaskSwitchContext
                  0x011994                  vTaskPlaceOnEventList
                  0x0119ea                  xTaskRemoveFromEventList
                  0x011a6c                  vTaskSetTimeOutState
                  0x011a80                  xTaskCheckForTimeOut
                  0x011aec                  vTaskMissedYield
                  0x011af6                  tasks.o:_prvIdleTask
                  0x011c78                  xTaskGetCurrentTaskHandle
                  0x011c84                  vTaskPriorityInherit
                  0x011cf6                  vTaskPriorityDisinherit
 .text            0x011d50        0xa94 DHCP.o
                  0x011d50                  DHCPInit
                  0x011da0                  DHCPDisable
                  0x011dc2                  DHCPEnable
                  0x011dda                  DHCPIsEnabled
                  0x011df2                  DHCPIsBound
                  0x011e00                  DHCPStateChanged
                  0x011e22                  DHCPIsServerDetected
                  0x011e32                  DHCPTempIPAddr
                  0x011e78                  DHCPTask
 .text            0x0127e4        0xa8e Helpers.o
                  0x0127e4                  LFSRSeedRand
                  0x012824                  LFSRRand
                  0x012892                  GenerateRandomDWORD
                  0x0129d0                  StringToIPAddress
                  0x012b58                  IPAddressToString
                  0x012b9a                  Base64Decode
                  0x012cd8                  Base64Encode
                  0x012e34                  uitoa
                  0x012eb2                  ultoa
                  0x012f62                  hexatob
                  0x012fd8                  btohexa_high
                  0x013000                  btohexa_low
                  0x013026                  stricmppgm2ram
                  0x0130be                  swaps
                  0x0130d8                  swapl
                  0x013136                  CalcIPChecksum
                  0x0131aa                  strupr
                  0x0131e4                  FormatNetBIOSName
                  0x01322c                  strnchr
 .text            0x013272        0xa26 TCPlib.o
                  0x013272                  TCPSSLStatus
                  0x01331a                  cTCPSSLStatus
                  0x013350                  TCPSSLStart
                  0x0133f8                  cTCPSSLStart
                  0x013424                  TCPGenericOpen
                  0x013518                  cTCPGenericOpen
                  0x013542                  TCPGenericClose
                  0x0135e2                  cTCPGenericClose
                  0x0135f2                  TCPServerDetach
                  0x013692                  cTCPServerDetach
                  0x0136a2                  TCPClientOpen
                  0x0136b8                  TCPServerOpen
                  0x0136cc                  TCPRead
                  0x013778                  TCPpRead
                  0x01382a                  cTCPpRead
                  0x013874                  cTCPRead
                  0x013896                  TCPWrite
                  0x013954                  cTCPWrite
                  0x013974                  TCPRemote
                  0x013a3a                  cTCPRemote
                  0x013a56                  TCPClientClose
                  0x013a62                  TCPServerClose
                  0x013a6e                  TCPisConn
                  0x013b1c                  cTCPisConn
                  0x013b2e                  TCPRxFlush
                  0x013bce                  cTCPRxFlush
                  0x013bde                  TCPRxLen
                  0x013c86                  cTCPRxLen
 .text            0x013c98        0x8a6 DNS.o
                  0x013c98                  DNSInit
                  0x013cac                  DNSBeginUsage
                  0x013cd2                  DNSEndUsage
                  0x013d08                  DNSResolve
                  0x013d4a                  DNSIsResolved

.dinit            0x01453e        0x884
 .dinit           0x01453e        0x884 data_init

.text             0x014dc2       0x91ae
 .text            0x014dc2        0x830 WFMac_24G.o
                  0x014dc2                  GetReadPtrRawWindow
                  0x014ee8                  WFPeriodicGratuitousArp
                  0x014f70                  RetrieveBinaryKey
                  0x014faa                  MACProcess
                  0x014fd4                  WFGetTCBSize
                  0x014fdc                  MACInit
                  0x014fe6                  RawInit
                  0x015026                  MACIsLinked
                  0x015030                  MACIsTxReady
                  0x01504e                  RawGetMgmtRxBuffer
                  0x015062                  MACDiscardRx
                  0x015074                  MACGetFreeRxSize
                  0x0150ea                  MACGetHeader
                  0x0151c6                  MACPutHeader
                  0x015222                  MACPutGeneralHeader
                  0x015270                  MACFlush
                  0x015292                  MACSetReadPtrInRx
                  0x0152a2                  MACSetWritePtr
                  0x0152b6                  MACSetReadPtr
                  0x0152ca                  MACCalcRxChecksum
                  0x0152f2                  MACMemCopyAsync
                  0x01551a                  MACIsMemCopyDone
                  0x015522                  MACGet
                  0x015540                  MACGetArray
                  0x015584                  MACPut
                  0x0155a4                  MACPutArray
                  0x0155c4                  MACPowerDown
                  0x0155ca                  MACPowerUp
                  0x0155d0                  CalcIPBufferChecksum
 .text            0x0155f2        0x800 UDPlib.o
                  0x0155f2                  UDPGenericOpen
                  0x0156ba                  cUDPGenericOpen
                  0x01575a                  UDPLocalPort
                  0x015772                  UDPServerOpen
                  0x015786                  UDPClientOpen
                  0x0157ae                  UDPBroadcastOpen
                  0x0157c2                  UDPGenericClose
                  0x015852                  cUDPGenericClose
                  0x015886                  UDPServerClose
                  0x015894                  UDPClientClose
                  0x0158a2                  UDPRxLen
                  0x0158b6                  UDPRxFlush
                  0x015906                  UDPRxOver
                  0x015938                  UDPRead
                  0x015a66                  UDPpRead
                  0x015b56                  UDPWrite
                  0x015c02                  cUDPWrite
                  0x015c3e                  UDPMultiOn
                  0x015ce8                  cUDPMultiOn
                  0x015d90                  UDPMultiOpen
 .text            0x015df2        0x784 UDP.o
                  0x015df2                  UDPInit
                  0x015e14                  UDPOpenEx
                  0x015f34                  UDPTask
                  0x01611a                  UDPIsOpened
                  0x01613c                  UDPClose
                  0x016174                  UDPSetTxBuffer
                  0x016188                  UDPSetRxBuffer
                  0x01619c                  UDPIsPutReady
                  0x0161d4                  UDPPut
                  0x016208                  UDPPutArray
                  0x016240                  UDPPutString
                  0x016256                  UDPFlush
                  0x0162b6                  UDPIsGetReady
                  0x0162f2                  UDPGet
                  0x01632a                  UDPGetArray
                  0x016376                  UDPDiscard
                  0x01639e                  UDPProcess
 .text            0x016576        0x6a0 SPIFlash.o
                  0x016576                  SPIFlashInit
                  0x016694                  SPIFlashReadArray
                  0x016786                  SPIFlashBeginWrite
                  0x016794                  SPIFlashWrite
                  0x0168b2                  SPIFlashWriteArray
                  0x016af4                  SPIFlashEraseSector
 .text            0x016c16        0x64a x_HTTPlib.o
                  0x016c16                  HTTP_Read
                  0x016d44                  HTTP_Get
                  0x016de8                  HTTP_GetSimple
                  0x016e14                  HTTP_Post
                  0x016ed8                  HTTP_PostSimple
                  0x016f0e                  HTTP_Put
                  0x016fc6                  HTTP_URLEncode
                  0x0170d8                  HTTP_URLEncodeLen
                  0x017140                  HTTP_URLDecode
                  0x01721e                  HTTP_URLDecodeLen
 .text            0x017260        0x63e RSA.o
                  0x017260                  RSAInit
                  0x01727e                  RSABeginUsage
                  0x0172ba                  RSAEndUsage
                  0x0172c4                  RSASetData
                  0x017372                  RSASetResult
                  0x01738c                  RSASetE
                  0x0173f4                  RSASetN
                  0x017416                  RSAStep
 .text            0x01789e        0x63c Main.o
                  0x01789e                  CmdCheck
                  0x017bde                  main
                  0x017c32                  TCPIPTask
 .text            0x017eda        0x632 WFDriverCom_24G.o
                  0x017eda                  WiFiTask
                  0x017f5e                  WFProcess
                  0x017f90                  SignalDHCPSuccessful
                  0x017f9e                  SetDhcpProgressState
                  0x017fb6                  SignalWiFiConnectionChanged
                  0x018064                  Read8BitWFRegister
                  0x01808e                  Write8BitWFRegister
                  0x0180b6                  Read16BitWFRegister
                  0x0180ea                  Write16BitWFRegister
                  0x01811e                  WriteWFArray
                  0x01814e                  ReadWFArray
                  0x018292                  WFEintHandler
                  0x01833c                  ReenablePowerSaveMode
                  0x018346                  WFHardwareInit
 .text            0x01850c        0x628 WFDebugStrings.o
                  0x01850c                  WF_OutputConnectionContext
                  0x01859e                  WF_OutputConnectionDebugMsg
                  0x0187e6                  WF_OutputConnectionInfo
                  0x018a74                  WF_AssertionFailed
                  0x018ae4                  WF_DisplayModuleAssertInfo
 .text            0x018b34        0x610 queue.o
                  0x018b34                  xQueueCreate
                  0x018bd8                  xQueueCreateMutex
                  0x018c3c                  xQueueGenericSend
                  0x018d20                  xQueueGenericSendFromISR
                  0x018d80                  xQueueGenericReceive
                  0x018ec2                  xQueueReceiveFromISR
                  0x018f24                  uxQueueMessagesWaiting
                  0x018f3c                  uxQueueMessagesWaitingFromISR
                  0x018f4c                  vQueueDelete
                  0x0190e6                  xQueueIsQueueEmptyFromISR
                  0x019126                  xQueueIsQueueFullFromISR
 .text            0x019144        0x4ce x_evrythng_utils.o
                  0x019144                  findJsonInResponseStr
                  0x0193d2                  print_number_value
                  0x01952c                  parseProperty
                  0x019594                  serializeProperty
                  0x0195da                  serializeAction
 .text            0x019612        0x4b6 WFParamMsg_24G.o
                  0x019612                  WFEnableMRF24WB0MMode
                  0x019624                  WFEnableDebugPrint
                  0x019634                  WF_SetLinkDownThreshold
                  0x019644                  WF_SetTxMode
                  0x019654                  WF_GetTxMode
                  0x019664                  WFEnableBroadcastProbeResponse
                  0x019676                  WF_GetDeviceInfo
                  0x0196cc                  WF_SetMacAddress
                  0x0196dc                  WF_GetMacAddress
                  0x0196ec                  WF_MulticastSetConfig
                  0x019798                  WF_MulticastGetConfig
                  0x0197fe                  WF_SetTxDataConfirm
                  0x01980e                  WF_GetTxDataConfirm
                  0x01981e                  WF_SetRegionalDomain
                  0x01982e                  WF_GetRegionalDomain
                  0x01983e                  WF_SetRtsThreshold
                  0x019868                  WF_YieldPassphrase2Host
                  0x01987a                  WF_SetPSK
                  0x01988a                  WF_GetRtsThreshold
                  0x0198a8                  WF_SetMultiCastFilter
                  0x01991e                  WF_EnableSWMultiCastFilter
                  0x019930                  WF_GetMacStats
                  0x019a64                  SendSetParamMsg
                  0x019a94                  SendGetParamMsg
 .text            0x019ac8        0x49a WFDriverRaw_24G.o
                  0x019ac8                  RawCalculateChecksum
                  0x019ae4                  AllocateMgmtTxBuffer
                  0x019b36                  DeallocateMgmtRxBuffer
                  0x019b46                  AllocateDataTxBuffer
                  0x019ba2                  SendRAWDataFrame
                  0x019bcc                  SendRAWManagementFrame
                  0x019bde                  DeallocateDataRxBuffer
                  0x019c08                  RawMountRxBuffer
                  0x019c38                  RawToRawCopy
                  0x019c66                  PushRawWindow
                  0x019c78                  PopRawWindow
                  0x019c90                  ScratchMount
                  0x019cb4                  ScratchUnmount
                  0x019cc6                  RawRead
                  0x019ce2                  RawWrite
                  0x019d80                  RawSetIndex
                  0x019e0c                  RawGetIndex
                  0x019e28                  RawGetByte
                  0x019e64                  RawSetByte
 .text            0x019f62        0x48a WFConnectionAlgorithm.o
                  0x019f62                  WF_CASetElements
                  0x01a01a                  WF_CASetElementsN
                  0x01a04e                  WF_CAGetElements
                  0x01a098                  WF_CASetScanType
                  0x01a0a8                  WF_CAGetScanType
                  0x01a0ba                  WF_CASetMinChannelTime
                  0x01a0d4                  WF_CAGetMinChannelTime
                  0x01a0f4                  WF_CASetMaxChannelTime
                  0x01a10e                  WF_CAGetMaxChannelTime
                  0x01a12e                  WF_CASetProbeDelay
                  0x01a148                  WF_CAGetProbeDelay
                  0x01a168                  WF_CASetScanCount
                  0x01a178                  WF_CAGetScanCount
                  0x01a18a                  WF_CASetRssi
                  0x01a19a                  WF_CAGetRssi
                  0x01a1ac                  WF_CASetListRetryCount
                  0x01a1bc                  WF_CAGetListRetryCount
                  0x01a1ce                  WF_CASetEventNotificationAction
                  0x01a1da                  WF_CAGetEventNotificationAction
                  0x01a1ea                  WF_CASetBeaconTimeoutAction
                  0x01a1fa                  WF_CAGetBeaconTimeoutAction
                  0x01a20c                  WF_CASetDeauthAction
                  0x01a21c                  WF_CAGetDeauthAction
                  0x01a22e                  WF_CASetChannelList
                  0x01a240                  WF_CAGetChannelList
                  0x01a27c                  WF_CASetListenInterval
                  0x01a296                  WF_CASetDtimInterval
                  0x01a2b0                  WF_CAGetListenInterval
                  0x01a2d0                  WF_CASetBeaconPeriod
                  0x01a2ea                  WF_CAGetBeaconPeriod
                  0x01a30a                  WF_CAGetDtimInterval
                  0x01a32a                  WF_CASetBeaconTimeout
                  0x01a33a                  WF_CAGetBeaconTimeout
                  0x01a358                  GetEventNotificationMask
                  0x01a3da                  WF_DisableModuleConnectionManager
 .text            0x01a3ec        0x46e ARP.o
                  0x01a3ec                  ARPSendPkt
                  0x01a4b0                  ARPInit
                  0x01a50a                  ARPProcess
                  0x01a622                  ARPResolve
                  0x01a706                  ARPIsResolved
                  0x01a828                  SwapARPPacket
 .text            0x01a85a        0x3b2 SMTPlib.o
                  0x01a85a                  GenericSMTP
                  0x01a902                  SMTPStart
                  0x01a90c                  cSMTPStart
                  0x01a91a                  SMTPSetServer
                  0x01a9ba                  cSMTPSetServer
                  0x01aa06                  SMTPSetMsg
                  0x01aaa6                  cSMTPSetMsg
                  0x01ab02                  SMTPSend
                  0x01ab0c                  cSMTPSend
                  0x01ab1c                  SMTPBusy
                  0x01ab26                  cSMTPBusy
                  0x01ab34                  SMTPStop
                  0x01ab3e                  cSMTPStop
                  0x01ab58                  SMTPReport
                  0x01abfe                  cSMTPReport
 .text            0x01ac0c        0x3a2 WFConnectionProfile.o
                  0x01ac0c                  WF_CPCreate
                  0x01ac3a                  WF_CPDelete
                  0x01ac5e                  WF_CPGetIds
                  0x01ac86                  WF_CPSetElements
                  0x01acac                  WF_CPGetElements
                  0x01acc2                  WF_CPSetSsidType
                  0x01acd6                  WF_CPGetSsidType
                  0x01acec                  WF_CPSetSsid
                  0x01ad12                  WF_CPGetSsid
                  0x01ad52                  WF_CPSetBssid
                  0x01ad66                  WF_CPGetBssid
                  0x01ad7c                  WF_CPSetNetworkType
                  0x01ad90                  WF_CPGetNetworkType
                  0x01ada6                  WF_CPSetWepKeyType
                  0x01adba                  WF_CPGetWepKeyType
                  0x01add0                  WF_CPGetWPSCredentials
                  0x01ade6                  WF_CPUpdatePMK
                  0x01adfa                  WF_CPSetSecurity
                  0x01ae72                  WF_CPGetSecurity
                  0x01aedc                  WF_CPSetDefaultWepKeyIndex
                  0x01aef0                  WF_CPGetDefaultWepKeyIndex
                  0x01af06                  WF_CPSetAdHocBehavior
                  0x01af1a                  WF_CPGetAdHocBehavior
 .text            0x01afae        0x368 StackTsk.o
                  0x01afae                  StackInit
                  0x01b018                  StackTask
                  0x01b2fa                  StackApplications
                  0x01b308                  RenewDhcp
 .text            0x01b316        0x302 BigInt.o
                  0x01b316                  BigInt
                  0x01b346                  BigIntZero
                  0x01b36c                  BigIntMod
                  0x01b442                  BigIntCompare
                  0x01b4d6                  BigIntMagnitudeDifference
                  0x01b4f0                  BigIntMagnitude
                  0x01b552                  BigIntMultiply
                  0x01b58a                  BigIntSquare
                  0x01b5b4                  BigIntCopy
                  0x01b5e0                  BigIntSwapEndianness
 .text            0x01b618        0x2fc RTCClib.o
                  0x01b618                  _RTCCInterrupt
                  0x01b662                  RTCCAlarmStat
                  0x01b67e                  RTCCSet
                  0x01b706                  RTCCGet
                  0x01b772                  RTCCAlarmConf
                  0x01b85e                  RTCCAlarmSet
 .text            0x01b914        0x2f8 x_evrythng.o
                  0x01b988                  createHeader
                  0x01b9b4                  createHeader_BL
                  0x01b9e0                  createHeader_ContentType
                  0x01ba24                  createGetPropertyURLPath
                  0x01ba6c                  createUpdatePropertyURLPath
                  0x01bab0                  createPostActionURLPath
                  0x01badc                  evt_GetPropertyValue
                  0x01bb3e                  evt_UpdatePropertyValue
                  0x01bba6                  evt_PostAction
 .text            0x01bc0c        0x288 TCPIP_Utils.o
                  0x01bc0c                  DisplayIPValue
                  0x01bc46                  InitAppConfig
 .text            0x01be94        0x252 WFEventHandler.o
                  0x01be94                  WFProcessMgmtIndicateMsg
 .text            0x01c0e6        0x230 SNTP.o
                  0x01c0e6                  SNTPInit
                  0x01c0f6                  SNTPClient
                  0x01c2be                  SNTPGetUTCSeconds
 .text            0x01c316        0x200 IP.o
                  0x01c316                  IPGetHeader
                  0x01c428                  IPPutHeader
                  0x01c4d0                  IPSetRxBuffer
 .text            0x01c516        0x1ca ISRs.o
                  0x01c516                  _U1RXInterrupt
                  0x01c536                  _U2RXInterrupt
                  0x01c556                  _U3RXInterrupt
                  0x01c576                  _U4RXInterrupt
                  0x01c596                  _DefaultInterrupt
                  0x01c5c0                  _OscillatorFail
                  0x01c5ea                  _AddressError
                  0x01c614                  _StackError
                  0x01c63e                  _MathError
                  0x01c668                  _INT2Interrupt
                  0x01c690                  _INT3Interrupt
                  0x01c6b8                  _INT4Interrupt
 .text            0x01c6e0        0x1be WFMgmtMsg_24G.o
                  0x01c6e0                  SendMgmtMsg
                  0x01c766                  SignalMgmtConfirmReceivedEvent
                  0x01c770                  WaitForMgmtResponse
                  0x01c810                  WaitForMgmtResponseAndReadData
                  0x01c872                  WFSetFuncState
 .text            0x01c89e        0x1ba INTlib.o
                  0x01c89e                  nothigToDo
                  0x01c8a4                  INTDetach
                  0x01c8d4                  INTAttach
                  0x01c906                  INTInit
                  0x01c99e                  INTPriority
                  0x01c9fe                  INTEnable
                  0x01ca2e                  INTDisable
 .text            0x01ca58        0x176 heap_2.o
                  0x01ca58                  pvPortMalloc
                  0x01cb64                  vPortFree
                  0x01cbc0                  xPortGetFreeHeapSize
                  0x01cbc8                  vPortInitialiseBlocks
 .text            0x01cbce        0x16a WFPowerSave.o
                  0x01cbce                  WFConfigureLowPowerMode
                  0x01cc0e                  WF_PsPollEnable
                  0x01cc50                  isSleepNeeded
                  0x01cc58                  ClearSleepNeeded
                  0x01cc62                  SetSleepNeeded
                  0x01cc6c                  SetAppPowerSaveMode
                  0x01cc78                  GetAppPowerSaveMode
                  0x01cc80                  WF_PsPollDisable
                  0x01cca2                  WF_GetPowerSaveState
                  0x01ccb2                  WFisPsPollEnabled
                  0x01ccd4                  WFIsPsPollActive
                  0x01ccdc                  EnsureWFisAwake
                  0x01ccfe                  WF_HibernateEnable
                  0x01cd2c                  SetPowerSaveState
 .text            0x01cd38        0x148 port.o
                  0x01cd38                  pxPortInitialiseStack
                  0x01cdc2                  xPortStartScheduler
                  0x01cdf0                  vPortEndScheduler
                  0x01ce24                  vPortEnterCritical
                  0x01ce38                  vPortExitCritical
                  0x01ce52                  _T5Interrupt
 .text            0x01ce80        0x140 WFConnectionManager.o
                  0x01ce80                  WF_CMConnect
                  0x01ced0                  WF_CMDisconnect
                  0x01cf08                  WF_CMGetConnectionState
                  0x01cf5e                  WFisConnected
                  0x01cf66                  SetLogicalConnectionState
                  0x01cf72                  WF_CMCheckConnectionState
                  0x01cfae                  WF_CMGetConnectContext
 .text            0x01cfc0        0x12e Tick.o
                  0x01cfc0                  TickInit
                  0x01d044                  TickGet
                  0x01d050                  TickGetDiv256
                  0x01d080                  TickGetDiv64K
                  0x01d0b0                  TickConvertToMilliseconds
                  0x01d0d6                  _T1Interrupt
 .text            0x01d0ee        0x128 list.o
                  0x01d0ee                  vListInitialise
                  0x01d120                  vListInitialiseItem
                  0x01d12e                  vListInsertEnd
                  0x01d172                  vListInsert
                  0x01d1d2                  vListRemove
 .text            0x01d216        0x128 taskFlyport.o
                  0x01d216                  test_evt_GetPropertyValue
                  0x01d286                  test_evt_UpdatePropertyValue
                  0x01d2c6                  test_evt_PostAction
                  0x01d2f6                  connectToWifi
                  0x01d31a                  FlyportTask
 .text            0x01d33e        0x122 ARCFOUR.o
                  0x01d33e                  ARCFOURInitialize
                  0x01d3d0                  ARCFOURCrypt
 .text            0x01d460        0x110 Delay.o
                  0x01d460                  DelayMs
                  0x01d48c                  Delay10us
 .text            0x01d570        0x10a WF_Config.o
                  0x01d570                  WF_ProcessEvent
 .text            0x01d67a        0x108 ARPlib.o
                  0x01d67a                  ARPResolveMAC
                  0x01d736                  cARPResolveMAC
 .text            0x01d782        0x106 HWInit.o
                  0x01d782                  HWInit
 .text            0x01d888         0xdc BigInt_helper.o
                  0x01d888                  _addBI
                  0x01d8a8                  _subBI
                  0x01d8c8                  _zeroBI
                  0x01d8d4                  _msbBI
                  0x01d8e4                  _mulBI
                  0x01d91a                  _sqrBI
                  0x01d924                  _masBI
                  0x01d946                  _copyBI
 .text            0x01d964         0xd4 WF_Spi.o
                  0x01d964                  WF_SpiInit
                  0x01d984                  WF_SpiEnableChipSelect
                  0x01d98c                  WF_SpiDisableChipSelect
                  0x01d996                  WFSpiTxRx
 .text            0x01da38         0xc6 WF_Utils.o
                  0x01da38                  WF_Connect
 .text            0x01dafe         0xc0 x_timestamp.o
                  0x01dafe                  initializeTime
                  0x01db98                  getTimeStamp
 .text            0x01dbbe         0xb4 WFScan.o
                  0x01dbe4                  WF_Scan
                  0x01dc22                  WF_ScanGetResult
 .text            0x01dc72         0xa6 Random.o
                  0x01dc72                  RandomInit
                  0x01dcb8                  RandomGet
                  0x01dcf0                  RandomAdd
 .text            0x01dd18         0x9a WF_Eint.o
                  0x01dd18                  WF_EintIsDisabled
                  0x01dd2a                  WF_EintIsPending
                  0x01dd4c                  _INT1Interrupt
                  0x01dd86                  WF_EintEnable
                  0x01dd98                  WF_EintDisable
                  0x01dda0                  WF_EintInit
 .text            0x01ddb2         0x88 WFTxPower.o
                  0x01ddb2                  WF_TxPowerSetMax
                  0x01ddf4                  WF_TxPowerGetMax
                  0x01de20                  WF_TxPowerGetFactoryMax
 .text            0x01de3a         0x7e WF_Events.o
                  0x01de3a                  OnConnectionSuccessful
                  0x01de52                  OnConnectionFailed
                  0x01de5c                  OnConnectionTempLost
                  0x01de66                  OnConnectionReestablished
                  0x01de76                  OnConnectionPermLost
                  0x01de88                  OnScanResult
 .text            0x01deb8         0x68 WFInit.o
                  0x01deb8                  WF_Init
 .text            0x01df20         0x50 portasm_PIC24.o
                  0x01df20                  vPortYield
